	.file	"MAL.cpp"
	.text
	.section	.text$_ZNSt9exceptionC2Ev,"x"
	.linkonce discard
	.align 2
	.globl	_ZNSt9exceptionC2Ev
	.def	_ZNSt9exceptionC2Ev;	.scl	2;	.type	32;	.endef
	.seh_proc	_ZNSt9exceptionC2Ev
_ZNSt9exceptionC2Ev:
.LFB60:
	pushq	%rbp
	.seh_pushreg	%rbp
	movq	%rsp, %rbp
	.seh_setframe	%rbp, 0
	.seh_endprologue
	movq	%rcx, 16(%rbp)
	movq	.refptr._ZTVSt9exception(%rip), %rax
	leaq	16(%rax), %rdx
	movq	16(%rbp), %rax
	movq	%rdx, (%rax)
	nop
	popq	%rbp
	ret
	.seh_endproc
	.section	.text$_ZNKSt9type_info4nameEv,"x"
	.linkonce discard
	.align 2
	.globl	_ZNKSt9type_info4nameEv
	.def	_ZNKSt9type_info4nameEv;	.scl	2;	.type	32;	.endef
	.seh_proc	_ZNKSt9type_info4nameEv
_ZNKSt9type_info4nameEv:
.LFB65:
	pushq	%rbp
	.seh_pushreg	%rbp
	movq	%rsp, %rbp
	.seh_setframe	%rbp, 0
	.seh_endprologue
	movq	%rcx, 16(%rbp)
	movq	16(%rbp), %rax
	movq	8(%rax), %rax
	movzbl	(%rax), %eax
	cmpb	$42, %al
	jne	.L3
	movq	16(%rbp), %rax
	movq	8(%rax), %rax
	addq	$1, %rax
	jmp	.L5
.L3:
	movq	16(%rbp), %rax
	movq	8(%rax), %rax
.L5:
	popq	%rbp
	ret
	.seh_endproc
	.section	.text$_ZnwyPv,"x"
	.linkonce discard
	.globl	_ZnwyPv
	.def	_ZnwyPv;	.scl	2;	.type	32;	.endef
	.seh_proc	_ZnwyPv
_ZnwyPv:
.LFB83:
	pushq	%rbp
	.seh_pushreg	%rbp
	movq	%rsp, %rbp
	.seh_setframe	%rbp, 0
	.seh_endprologue
	movq	%rcx, 16(%rbp)
	movq	%rdx, 24(%rbp)
	movq	24(%rbp), %rax
	popq	%rbp
	ret
	.seh_endproc
	.section	.text$_ZdlPvS_,"x"
	.linkonce discard
	.globl	_ZdlPvS_
	.def	_ZdlPvS_;	.scl	2;	.type	32;	.endef
	.seh_proc	_ZdlPvS_
_ZdlPvS_:
.LFB85:
	pushq	%rbp
	.seh_pushreg	%rbp
	movq	%rsp, %rbp
	.seh_setframe	%rbp, 0
	.seh_endprologue
	movq	%rcx, 16(%rbp)
	movq	%rdx, 24(%rbp)
	nop
	popq	%rbp
	ret
	.seh_endproc
	.section .rdata,"dr"
_ZStL19piecewise_construct:
	.space 1
	.section	.text$_ZN9__gnu_cxx5__ops16__iter_less_iterEv,"x"
	.linkonce discard
	.globl	_ZN9__gnu_cxx5__ops16__iter_less_iterEv
	.def	_ZN9__gnu_cxx5__ops16__iter_less_iterEv;	.scl	2;	.type	32;	.endef
	.seh_proc	_ZN9__gnu_cxx5__ops16__iter_less_iterEv
_ZN9__gnu_cxx5__ops16__iter_less_iterEv:
.LFB306:
	pushq	%rbp
	.seh_pushreg	%rbp
	movq	%rsp, %rbp
	.seh_setframe	%rbp, 0
	.seh_endprologue
	popq	%rbp
	ret
	.seh_endproc
	.section	.text$_ZN9__gnu_cxx5__ops14_Iter_less_valC1ENS0_15_Iter_less_iterE,"x"
	.linkonce discard
	.align 2
	.globl	_ZN9__gnu_cxx5__ops14_Iter_less_valC1ENS0_15_Iter_less_iterE
	.def	_ZN9__gnu_cxx5__ops14_Iter_less_valC1ENS0_15_Iter_less_iterE;	.scl	2;	.type	32;	.endef
	.seh_proc	_ZN9__gnu_cxx5__ops14_Iter_less_valC1ENS0_15_Iter_less_iterE
_ZN9__gnu_cxx5__ops14_Iter_less_valC1ENS0_15_Iter_less_iterE:
.LFB309:
	pushq	%rbp
	.seh_pushreg	%rbp
	movq	%rsp, %rbp
	.seh_setframe	%rbp, 0
	.seh_endprologue
	movq	%rcx, 16(%rbp)
	nop
	popq	%rbp
	ret
	.seh_endproc
	.section	.text$_ZN9__gnu_cxx5__ops15__iter_less_valEv,"x"
	.linkonce discard
	.globl	_ZN9__gnu_cxx5__ops15__iter_less_valEv
	.def	_ZN9__gnu_cxx5__ops15__iter_less_valEv;	.scl	2;	.type	32;	.endef
	.seh_proc	_ZN9__gnu_cxx5__ops15__iter_less_valEv
_ZN9__gnu_cxx5__ops15__iter_less_valEv:
.LFB311:
	pushq	%rbp
	.seh_pushreg	%rbp
	movq	%rsp, %rbp
	.seh_setframe	%rbp, 0
	.seh_endprologue
	popq	%rbp
	ret
	.seh_endproc
	.section	.text$_ZN9__gnu_cxx5__ops15__val_comp_iterENS0_15_Iter_less_iterE,"x"
	.linkonce discard
	.globl	_ZN9__gnu_cxx5__ops15__val_comp_iterENS0_15_Iter_less_iterE
	.def	_ZN9__gnu_cxx5__ops15__val_comp_iterENS0_15_Iter_less_iterE;	.scl	2;	.type	32;	.endef
	.seh_proc	_ZN9__gnu_cxx5__ops15__val_comp_iterENS0_15_Iter_less_iterE
_ZN9__gnu_cxx5__ops15__val_comp_iterENS0_15_Iter_less_iterE:
.LFB318:
	pushq	%rbp
	.seh_pushreg	%rbp
	movq	%rsp, %rbp
	.seh_setframe	%rbp, 0
	.seh_endprologue
	popq	%rbp
	ret
	.seh_endproc
	.section	.text$_ZSt4__lgx,"x"
	.linkonce discard
	.globl	_ZSt4__lgx
	.def	_ZSt4__lgx;	.scl	2;	.type	32;	.endef
	.seh_proc	_ZSt4__lgx
_ZSt4__lgx:
.LFB409:
	pushq	%rbp
	.seh_pushreg	%rbp
	movq	%rsp, %rbp
	.seh_setframe	%rbp, 0
	.seh_endprologue
	movq	%rcx, 16(%rbp)
	movq	16(%rbp), %rax
	bsrq	%rax, %rax
	xorq	$63, %rax
	movl	$63, %edx
	subl	%eax, %edx
	movl	%edx, %eax
	cltq
	popq	%rbp
	ret
	.seh_endproc
	.section	.text$_ZNSt11char_traitsIcE12to_char_typeERKi,"x"
	.linkonce discard
	.globl	_ZNSt11char_traitsIcE12to_char_typeERKi
	.def	_ZNSt11char_traitsIcE12to_char_typeERKi;	.scl	2;	.type	32;	.endef
	.seh_proc	_ZNSt11char_traitsIcE12to_char_typeERKi
_ZNSt11char_traitsIcE12to_char_typeERKi:
.LFB448:
	pushq	%rbp
	.seh_pushreg	%rbp
	movq	%rsp, %rbp
	.seh_setframe	%rbp, 0
	.seh_endprologue
	movq	%rcx, 16(%rbp)
	movq	16(%rbp), %rax
	movl	(%rax), %eax
	popq	%rbp
	ret
	.seh_endproc
	.section	.text$_ZNSt11char_traitsIcE11eq_int_typeERKiS2_,"x"
	.linkonce discard
	.globl	_ZNSt11char_traitsIcE11eq_int_typeERKiS2_
	.def	_ZNSt11char_traitsIcE11eq_int_typeERKiS2_;	.scl	2;	.type	32;	.endef
	.seh_proc	_ZNSt11char_traitsIcE11eq_int_typeERKiS2_
_ZNSt11char_traitsIcE11eq_int_typeERKiS2_:
.LFB450:
	pushq	%rbp
	.seh_pushreg	%rbp
	movq	%rsp, %rbp
	.seh_setframe	%rbp, 0
	.seh_endprologue
	movq	%rcx, 16(%rbp)
	movq	%rdx, 24(%rbp)
	movq	16(%rbp), %rax
	movl	(%rax), %edx
	movq	24(%rbp), %rax
	movl	(%rax), %eax
	cmpl	%eax, %edx
	sete	%al
	popq	%rbp
	ret
	.seh_endproc
	.section	.text$_ZNSt11char_traitsIcE3eofEv,"x"
	.linkonce discard
	.globl	_ZNSt11char_traitsIcE3eofEv
	.def	_ZNSt11char_traitsIcE3eofEv;	.scl	2;	.type	32;	.endef
	.seh_proc	_ZNSt11char_traitsIcE3eofEv
_ZNSt11char_traitsIcE3eofEv:
.LFB451:
	pushq	%rbp
	.seh_pushreg	%rbp
	movq	%rsp, %rbp
	.seh_setframe	%rbp, 0
	.seh_endprologue
	movl	$-1, %eax
	popq	%rbp
	ret
	.seh_endproc
	.section	.text$_ZStanSt13_Ios_FmtflagsS_,"x"
	.linkonce discard
	.globl	_ZStanSt13_Ios_FmtflagsS_
	.def	_ZStanSt13_Ios_FmtflagsS_;	.scl	2;	.type	32;	.endef
	.seh_proc	_ZStanSt13_Ios_FmtflagsS_
_ZStanSt13_Ios_FmtflagsS_:
.LFB1173:
	pushq	%rbp
	.seh_pushreg	%rbp
	movq	%rsp, %rbp
	.seh_setframe	%rbp, 0
	.seh_endprologue
	movl	%ecx, 16(%rbp)
	movl	%edx, 24(%rbp)
	movl	16(%rbp), %eax
	andl	24(%rbp), %eax
	popq	%rbp
	ret
	.seh_endproc
	.section	.text$_ZStcoSt13_Ios_Fmtflags,"x"
	.linkonce discard
	.globl	_ZStcoSt13_Ios_Fmtflags
	.def	_ZStcoSt13_Ios_Fmtflags;	.scl	2;	.type	32;	.endef
	.seh_proc	_ZStcoSt13_Ios_Fmtflags
_ZStcoSt13_Ios_Fmtflags:
.LFB1176:
	pushq	%rbp
	.seh_pushreg	%rbp
	movq	%rsp, %rbp
	.seh_setframe	%rbp, 0
	.seh_endprologue
	movl	%ecx, 16(%rbp)
	movl	16(%rbp), %eax
	notl	%eax
	popq	%rbp
	ret
	.seh_endproc
	.section	.text$_ZStaNRSt13_Ios_FmtflagsS_,"x"
	.linkonce discard
	.globl	_ZStaNRSt13_Ios_FmtflagsS_
	.def	_ZStaNRSt13_Ios_FmtflagsS_;	.scl	2;	.type	32;	.endef
	.seh_proc	_ZStaNRSt13_Ios_FmtflagsS_
_ZStaNRSt13_Ios_FmtflagsS_:
.LFB1178:
	pushq	%rbp
	.seh_pushreg	%rbp
	movq	%rsp, %rbp
	.seh_setframe	%rbp, 0
	subq	$32, %rsp
	.seh_stackalloc	32
	.seh_endprologue
	movq	%rcx, 16(%rbp)
	movl	%edx, 24(%rbp)
	movq	16(%rbp), %rax
	movl	(%rax), %eax
	movl	24(%rbp), %edx
	movl	%eax, %ecx
	call	_ZStanSt13_Ios_FmtflagsS_
	movq	16(%rbp), %rdx
	movl	%eax, (%rdx)
	movq	16(%rbp), %rax
	addq	$32, %rsp
	popq	%rbp
	ret
	.seh_endproc
	.section	.text$_ZNSt8ios_base6unsetfESt13_Ios_Fmtflags,"x"
	.linkonce discard
	.align 2
	.globl	_ZNSt8ios_base6unsetfESt13_Ios_Fmtflags
	.def	_ZNSt8ios_base6unsetfESt13_Ios_Fmtflags;	.scl	2;	.type	32;	.endef
	.seh_proc	_ZNSt8ios_base6unsetfESt13_Ios_Fmtflags
_ZNSt8ios_base6unsetfESt13_Ios_Fmtflags:
.LFB1208:
	pushq	%rbp
	.seh_pushreg	%rbp
	movq	%rsp, %rbp
	.seh_setframe	%rbp, 0
	subq	$32, %rsp
	.seh_stackalloc	32
	.seh_endprologue
	movq	%rcx, 16(%rbp)
	movl	%edx, 24(%rbp)
	movl	24(%rbp), %eax
	movl	%eax, %ecx
	call	_ZStcoSt13_Ios_Fmtflags
	movl	%eax, %edx
	movq	16(%rbp), %rax
	addq	$24, %rax
	movq	%rax, %rcx
	call	_ZStaNRSt13_Ios_FmtflagsS_
	nop
	addq	$32, %rsp
	popq	%rbp
	ret
	.seh_endproc
.lcomm _ZStL8__ioinit,1,1
	.section	.text$_ZN5boost10error_infoINS_15throw_function_EPKcEC1ES3_,"x"
	.linkonce discard
	.align 2
	.globl	_ZN5boost10error_infoINS_15throw_function_EPKcEC1ES3_
	.def	_ZN5boost10error_infoINS_15throw_function_EPKcEC1ES3_;	.scl	2;	.type	32;	.endef
	.seh_proc	_ZN5boost10error_infoINS_15throw_function_EPKcEC1ES3_
_ZN5boost10error_infoINS_15throw_function_EPKcEC1ES3_:
.LFB1949:
	pushq	%rbp
	.seh_pushreg	%rbp
	movq	%rsp, %rbp
	.seh_setframe	%rbp, 0
	.seh_endprologue
	movq	%rcx, 16(%rbp)
	movq	%rdx, 24(%rbp)
	movq	16(%rbp), %rax
	movq	24(%rbp), %rdx
	movq	%rdx, (%rax)
	nop
	popq	%rbp
	ret
	.seh_endproc
	.section	.text$_ZN5boost10error_infoINS_11throw_file_EPKcEC1ES3_,"x"
	.linkonce discard
	.align 2
	.globl	_ZN5boost10error_infoINS_11throw_file_EPKcEC1ES3_
	.def	_ZN5boost10error_infoINS_11throw_file_EPKcEC1ES3_;	.scl	2;	.type	32;	.endef
	.seh_proc	_ZN5boost10error_infoINS_11throw_file_EPKcEC1ES3_
_ZN5boost10error_infoINS_11throw_file_EPKcEC1ES3_:
.LFB1952:
	pushq	%rbp
	.seh_pushreg	%rbp
	movq	%rsp, %rbp
	.seh_setframe	%rbp, 0
	.seh_endprologue
	movq	%rcx, 16(%rbp)
	movq	%rdx, 24(%rbp)
	movq	16(%rbp), %rax
	movq	24(%rbp), %rdx
	movq	%rdx, (%rax)
	nop
	popq	%rbp
	ret
	.seh_endproc
	.section	.text$_ZN5boost10error_infoINS_11throw_line_EiEC1Ei,"x"
	.linkonce discard
	.align 2
	.globl	_ZN5boost10error_infoINS_11throw_line_EiEC1Ei
	.def	_ZN5boost10error_infoINS_11throw_line_EiEC1Ei;	.scl	2;	.type	32;	.endef
	.seh_proc	_ZN5boost10error_infoINS_11throw_line_EiEC1Ei
_ZN5boost10error_infoINS_11throw_line_EiEC1Ei:
.LFB1955:
	pushq	%rbp
	.seh_pushreg	%rbp
	movq	%rsp, %rbp
	.seh_setframe	%rbp, 0
	.seh_endprologue
	movq	%rcx, 16(%rbp)
	movl	%edx, 24(%rbp)
	movq	16(%rbp), %rax
	movl	24(%rbp), %edx
	movl	%edx, (%rax)
	nop
	popq	%rbp
	ret
	.seh_endproc
	.section	.text$_ZN5boost9exceptionC2Ev,"x"
	.linkonce discard
	.align 2
	.globl	_ZN5boost9exceptionC2Ev
	.def	_ZN5boost9exceptionC2Ev;	.scl	2;	.type	32;	.endef
	.seh_proc	_ZN5boost9exceptionC2Ev
_ZN5boost9exceptionC2Ev:
.LFB1960:
	pushq	%rbp
	.seh_pushreg	%rbp
	movq	%rsp, %rbp
	.seh_setframe	%rbp, 0
	subq	$32, %rsp
	.seh_stackalloc	32
	.seh_endprologue
	movq	%rcx, 16(%rbp)
	leaq	16+_ZTVN5boost9exceptionE(%rip), %rdx
	movq	16(%rbp), %rax
	movq	%rdx, (%rax)
	movq	16(%rbp), %rax
	addq	$8, %rax
	movq	%rax, %rcx
	call	_ZN5boost16exception_detail12refcount_ptrINS0_20error_info_containerEEC1Ev
	movq	16(%rbp), %rax
	movq	$0, 16(%rax)
	movq	16(%rbp), %rax
	movq	$0, 24(%rax)
	movq	16(%rbp), %rax
	movl	$-1, 32(%rax)
	nop
	addq	$32, %rsp
	popq	%rbp
	ret
	.seh_endproc
	.section	.text$_ZN5boost9exceptionD2Ev,"x"
	.linkonce discard
	.align 2
	.globl	_ZN5boost9exceptionD2Ev
	.def	_ZN5boost9exceptionD2Ev;	.scl	2;	.type	32;	.endef
	.seh_proc	_ZN5boost9exceptionD2Ev
_ZN5boost9exceptionD2Ev:
.LFB1963:
	pushq	%rbp
	.seh_pushreg	%rbp
	movq	%rsp, %rbp
	.seh_setframe	%rbp, 0
	subq	$32, %rsp
	.seh_stackalloc	32
	.seh_endprologue
	movq	%rcx, 16(%rbp)
	leaq	16+_ZTVN5boost9exceptionE(%rip), %rdx
	movq	16(%rbp), %rax
	movq	%rdx, (%rax)
	movq	16(%rbp), %rax
	addq	$8, %rax
	movq	%rax, %rcx
	call	_ZN5boost16exception_detail12refcount_ptrINS0_20error_info_containerEED1Ev
	nop
	addq	$32, %rsp
	popq	%rbp
	ret
	.seh_endproc
	.section	.text$_ZN5boost16exception_detail10clone_baseD2Ev,"x"
	.linkonce discard
	.align 2
	.globl	_ZN5boost16exception_detail10clone_baseD2Ev
	.def	_ZN5boost16exception_detail10clone_baseD2Ev;	.scl	2;	.type	32;	.endef
	.seh_proc	_ZN5boost16exception_detail10clone_baseD2Ev
_ZN5boost16exception_detail10clone_baseD2Ev:
.LFB1973:
	pushq	%rbp
	.seh_pushreg	%rbp
	movq	%rsp, %rbp
	.seh_setframe	%rbp, 0
	.seh_endprologue
	movq	%rcx, 16(%rbp)
	leaq	16+_ZTVN5boost16exception_detail10clone_baseE(%rip), %rdx
	movq	16(%rbp), %rax
	movq	%rdx, (%rax)
	nop
	popq	%rbp
	ret
	.seh_endproc
	.section	.text$_ZN5boost16exception_detail20copy_boost_exceptionEPNS_9exceptionEPKS1_,"x"
	.linkonce discard
	.globl	_ZN5boost16exception_detail20copy_boost_exceptionEPNS_9exceptionEPKS1_
	.def	_ZN5boost16exception_detail20copy_boost_exceptionEPNS_9exceptionEPKS1_;	.scl	2;	.type	32;	.endef
	.seh_proc	_ZN5boost16exception_detail20copy_boost_exceptionEPNS_9exceptionEPKS1_
_ZN5boost16exception_detail20copy_boost_exceptionEPNS_9exceptionEPKS1_:
.LFB1976:
	pushq	%rbp
	.seh_pushreg	%rbp
	pushq	%rbx
	.seh_pushreg	%rbx
	subq	$72, %rsp
	.seh_stackalloc	72
	leaq	128(%rsp), %rbp
	.seh_setframe	%rbp, 128
	.seh_endprologue
	movq	%rcx, -32(%rbp)
	movq	%rdx, -24(%rbp)
	leaq	-88(%rbp), %rax
	movq	%rax, %rcx
	call	_ZN5boost16exception_detail12refcount_ptrINS0_20error_info_containerEEC1Ev
	movq	-24(%rbp), %rax
	addq	$8, %rax
	movq	%rax, %rcx
	call	_ZNK5boost16exception_detail12refcount_ptrINS0_20error_info_containerEE3getEv
	movq	%rax, -72(%rbp)
	cmpq	$0, -72(%rbp)
	je	.L38
	movq	-72(%rbp), %rax
	movq	(%rax), %rax
	addq	$40, %rax
	movq	(%rax), %r8
	leaq	-80(%rbp), %rax
	movq	-72(%rbp), %rdx
	movq	%rax, %rcx
.LEHB0:
	call	*%r8
.LEHE0:
	leaq	-80(%rbp), %rdx
	leaq	-88(%rbp), %rax
	movq	%rax, %rcx
.LEHB1:
	call	_ZN5boost16exception_detail12refcount_ptrINS0_20error_info_containerEEaSERKS3_
.LEHE1:
	leaq	-80(%rbp), %rax
	movq	%rax, %rcx
	call	_ZN5boost16exception_detail12refcount_ptrINS0_20error_info_containerEED1Ev
.L38:
	movq	-24(%rbp), %rax
	movq	24(%rax), %rdx
	movq	-32(%rbp), %rax
	movq	%rdx, 24(%rax)
	movq	-24(%rbp), %rax
	movl	32(%rax), %edx
	movq	-32(%rbp), %rax
	movl	%edx, 32(%rax)
	movq	-24(%rbp), %rax
	movq	16(%rax), %rdx
	movq	-32(%rbp), %rax
	movq	%rdx, 16(%rax)
	movq	-32(%rbp), %rax
	leaq	8(%rax), %rcx
	leaq	-88(%rbp), %rax
	movq	%rax, %rdx
.LEHB2:
	call	_ZN5boost16exception_detail12refcount_ptrINS0_20error_info_containerEEaSERKS3_
.LEHE2:
	leaq	-88(%rbp), %rax
	movq	%rax, %rcx
	call	_ZN5boost16exception_detail12refcount_ptrINS0_20error_info_containerEED1Ev
	jmp	.L43
.L42:
	movq	%rax, %rbx
	leaq	-80(%rbp), %rax
	movq	%rax, %rcx
	call	_ZN5boost16exception_detail12refcount_ptrINS0_20error_info_containerEED1Ev
	jmp	.L40
.L41:
	movq	%rax, %rbx
.L40:
	leaq	-88(%rbp), %rax
	movq	%rax, %rcx
	call	_ZN5boost16exception_detail12refcount_ptrINS0_20error_info_containerEED1Ev
	movq	%rbx, %rax
	movq	%rax, %rcx
.LEHB3:
	call	_Unwind_Resume
	nop
.LEHE3:
.L43:
	addq	$72, %rsp
	popq	%rbx
	popq	%rbp
	ret
	.def	__gxx_personality_seh0;	.scl	2;	.type	32;	.endef
	.seh_handler	__gxx_personality_seh0, @unwind, @except
	.seh_handlerdata
.LLSDA1976:
	.byte	0xff
	.byte	0xff
	.byte	0x1
	.uleb128 .LLSDACSE1976-.LLSDACSB1976
.LLSDACSB1976:
	.uleb128 .LEHB0-.LFB1976
	.uleb128 .LEHE0-.LEHB0
	.uleb128 .L41-.LFB1976
	.uleb128 0
	.uleb128 .LEHB1-.LFB1976
	.uleb128 .LEHE1-.LEHB1
	.uleb128 .L42-.LFB1976
	.uleb128 0
	.uleb128 .LEHB2-.LFB1976
	.uleb128 .LEHE2-.LEHB2
	.uleb128 .L41-.LFB1976
	.uleb128 0
	.uleb128 .LEHB3-.LFB1976
	.uleb128 .LEHE3-.LEHB3
	.uleb128 0
	.uleb128 0
.LLSDACSE1976:
	.section	.text$_ZN5boost16exception_detail20copy_boost_exceptionEPNS_9exceptionEPKS1_,"x"
	.linkonce discard
	.seh_endproc
	.section	.text$_ZN5boost36throw_exception_assert_compatibilityERKSt9exception,"x"
	.linkonce discard
	.globl	_ZN5boost36throw_exception_assert_compatibilityERKSt9exception
	.def	_ZN5boost36throw_exception_assert_compatibilityERKSt9exception;	.scl	2;	.type	32;	.endef
	.seh_proc	_ZN5boost36throw_exception_assert_compatibilityERKSt9exception
_ZN5boost36throw_exception_assert_compatibilityERKSt9exception:
.LFB1988:
	pushq	%rbp
	.seh_pushreg	%rbp
	movq	%rsp, %rbp
	.seh_setframe	%rbp, 0
	.seh_endprologue
	movq	%rcx, 16(%rbp)
	nop
	popq	%rbp
	ret
	.seh_endproc
	.section .rdata,"dr"
_ZStL13allocator_arg:
	.space 1
_ZStL6ignore:
	.space 1
	.align 4
_ZN9__gnu_cxxL21__default_lock_policyE:
	.long	2
	.section	.text$_ZN5boost6none_tC1ENS0_8init_tagE,"x"
	.linkonce discard
	.align 2
	.globl	_ZN5boost6none_tC1ENS0_8init_tagE
	.def	_ZN5boost6none_tC1ENS0_8init_tagE;	.scl	2;	.type	32;	.endef
	.seh_proc	_ZN5boost6none_tC1ENS0_8init_tagE
_ZN5boost6none_tC1ENS0_8init_tagE:
.LFB3376:
	pushq	%rbp
	.seh_pushreg	%rbp
	movq	%rsp, %rbp
	.seh_setframe	%rbp, 0
	.seh_endprologue
	movq	%rcx, 16(%rbp)
	nop
	popq	%rbp
	ret
	.seh_endproc
.lcomm _ZN5boostL4noneE,1,1
	.section	.text$_ZN5boost11optional_ns15in_place_init_tC1ENS1_8init_tagE,"x"
	.linkonce discard
	.align 2
	.globl	_ZN5boost11optional_ns15in_place_init_tC1ENS1_8init_tagE
	.def	_ZN5boost11optional_ns15in_place_init_tC1ENS1_8init_tagE;	.scl	2;	.type	32;	.endef
	.seh_proc	_ZN5boost11optional_ns15in_place_init_tC1ENS1_8init_tagE
_ZN5boost11optional_ns15in_place_init_tC1ENS1_8init_tagE:
.LFB3390:
	pushq	%rbp
	.seh_pushreg	%rbp
	movq	%rsp, %rbp
	.seh_setframe	%rbp, 0
	.seh_endprologue
	movq	%rcx, 16(%rbp)
	nop
	popq	%rbp
	ret
	.seh_endproc
.lcomm _ZN5boost11optional_nsL13in_place_initE,1,1
	.section	.text$_ZN5boost11optional_ns18in_place_init_if_tC1ENS1_8init_tagE,"x"
	.linkonce discard
	.align 2
	.globl	_ZN5boost11optional_ns18in_place_init_if_tC1ENS1_8init_tagE
	.def	_ZN5boost11optional_ns18in_place_init_if_tC1ENS1_8init_tagE;	.scl	2;	.type	32;	.endef
	.seh_proc	_ZN5boost11optional_ns18in_place_init_if_tC1ENS1_8init_tagE
_ZN5boost11optional_ns18in_place_init_if_tC1ENS1_8init_tagE:
.LFB3393:
	pushq	%rbp
	.seh_pushreg	%rbp
	movq	%rsp, %rbp
	.seh_setframe	%rbp, 0
	.seh_endprologue
	movq	%rcx, 16(%rbp)
	nop
	popq	%rbp
	ret
	.seh_endproc
.lcomm _ZN5boost11optional_nsL16in_place_init_ifE,1,1
	.section	.text$_ZN5boost9typeindex14stl_type_indexC1ERKSt9type_info,"x"
	.linkonce discard
	.align 2
	.globl	_ZN5boost9typeindex14stl_type_indexC1ERKSt9type_info
	.def	_ZN5boost9typeindex14stl_type_indexC1ERKSt9type_info;	.scl	2;	.type	32;	.endef
	.seh_proc	_ZN5boost9typeindex14stl_type_indexC1ERKSt9type_info
_ZN5boost9typeindex14stl_type_indexC1ERKSt9type_info:
.LFB3681:
	pushq	%rbp
	.seh_pushreg	%rbp
	movq	%rsp, %rbp
	.seh_setframe	%rbp, 0
	.seh_endprologue
	movq	%rcx, 16(%rbp)
	movq	%rdx, 24(%rbp)
	movq	16(%rbp), %rax
	movq	24(%rbp), %rdx
	movq	%rdx, (%rax)
	nop
	popq	%rbp
	ret
	.seh_endproc
	.section	.text$_ZNK5boost9typeindex14stl_type_index9type_infoEv,"x"
	.linkonce discard
	.align 2
	.globl	_ZNK5boost9typeindex14stl_type_index9type_infoEv
	.def	_ZNK5boost9typeindex14stl_type_index9type_infoEv;	.scl	2;	.type	32;	.endef
	.seh_proc	_ZNK5boost9typeindex14stl_type_index9type_infoEv
_ZNK5boost9typeindex14stl_type_index9type_infoEv:
.LFB3682:
	pushq	%rbp
	.seh_pushreg	%rbp
	movq	%rsp, %rbp
	.seh_setframe	%rbp, 0
	.seh_endprologue
	movq	%rcx, 16(%rbp)
	movq	16(%rbp), %rax
	movq	(%rax), %rax
	popq	%rbp
	ret
	.seh_endproc
	.section	.text$_ZN5boost3anyC1ERKS0_,"x"
	.linkonce discard
	.align 2
	.globl	_ZN5boost3anyC1ERKS0_
	.def	_ZN5boost3anyC1ERKS0_;	.scl	2;	.type	32;	.endef
	.seh_proc	_ZN5boost3anyC1ERKS0_
_ZN5boost3anyC1ERKS0_:
.LFB3701:
	pushq	%rbp
	.seh_pushreg	%rbp
	movq	%rsp, %rbp
	.seh_setframe	%rbp, 0
	subq	$32, %rsp
	.seh_stackalloc	32
	.seh_endprologue
	movq	%rcx, 16(%rbp)
	movq	%rdx, 24(%rbp)
	movq	24(%rbp), %rax
	movq	(%rax), %rax
	testq	%rax, %rax
	je	.L52
	movq	24(%rbp), %rax
	movq	(%rax), %rax
	movq	24(%rbp), %rdx
	movq	(%rdx), %rdx
	movq	(%rdx), %rdx
	addq	$24, %rdx
	movq	(%rdx), %rdx
	movq	%rax, %rcx
	call	*%rdx
	jmp	.L53
.L52:
	movl	$0, %eax
.L53:
	movq	16(%rbp), %rdx
	movq	%rax, (%rdx)
	nop
	addq	$32, %rsp
	popq	%rbp
	ret
	.seh_endproc
	.section	.text$_ZN5boost3anyD1Ev,"x"
	.linkonce discard
	.align 2
	.globl	_ZN5boost3anyD1Ev
	.def	_ZN5boost3anyD1Ev;	.scl	2;	.type	32;	.endef
	.seh_proc	_ZN5boost3anyD1Ev
_ZN5boost3anyD1Ev:
.LFB3708:
	pushq	%rbp
	.seh_pushreg	%rbp
	movq	%rsp, %rbp
	.seh_setframe	%rbp, 0
	subq	$32, %rsp
	.seh_stackalloc	32
	.seh_endprologue
	movq	%rcx, 16(%rbp)
	movq	16(%rbp), %rax
	movq	(%rax), %rax
	testq	%rax, %rax
	je	.L56
	movq	(%rax), %rdx
	addq	$8, %rdx
	movq	(%rdx), %rdx
	movq	%rax, %rcx
	call	*%rdx
.L56:
	nop
	addq	$32, %rsp
	popq	%rbp
	ret
	.seh_endproc
	.section	.text$_ZN5boost3any11placeholderD2Ev,"x"
	.linkonce discard
	.align 2
	.globl	_ZN5boost3any11placeholderD2Ev
	.def	_ZN5boost3any11placeholderD2Ev;	.scl	2;	.type	32;	.endef
	.seh_proc	_ZN5boost3any11placeholderD2Ev
_ZN5boost3any11placeholderD2Ev:
.LFB3717:
	pushq	%rbp
	.seh_pushreg	%rbp
	movq	%rsp, %rbp
	.seh_setframe	%rbp, 0
	.seh_endprologue
	movq	%rcx, 16(%rbp)
	leaq	16+_ZTVN5boost3any11placeholderE(%rip), %rdx
	movq	16(%rbp), %rax
	movq	%rdx, (%rax)
	nop
	popq	%rbp
	ret
	.seh_endproc
	.section	.text$_ZN5boost13property_tree11ptree_errorC2ERKNSt7__cxx1112basic_stringIcSt11char_traitsIcESaIcEEE,"x"
	.linkonce discard
	.align 2
	.globl	_ZN5boost13property_tree11ptree_errorC2ERKNSt7__cxx1112basic_stringIcSt11char_traitsIcESaIcEEE
	.def	_ZN5boost13property_tree11ptree_errorC2ERKNSt7__cxx1112basic_stringIcSt11char_traitsIcESaIcEEE;	.scl	2;	.type	32;	.endef
	.seh_proc	_ZN5boost13property_tree11ptree_errorC2ERKNSt7__cxx1112basic_stringIcSt11char_traitsIcESaIcEEE
_ZN5boost13property_tree11ptree_errorC2ERKNSt7__cxx1112basic_stringIcSt11char_traitsIcESaIcEEE:
.LFB3735:
	pushq	%rbp
	.seh_pushreg	%rbp
	movq	%rsp, %rbp
	.seh_setframe	%rbp, 0
	subq	$32, %rsp
	.seh_stackalloc	32
	.seh_endprologue
	movq	%rcx, 16(%rbp)
	movq	%rdx, 24(%rbp)
	movq	16(%rbp), %rax
	movq	24(%rbp), %rdx
	movq	%rax, %rcx
	call	_ZNSt13runtime_errorC2ERKNSt7__cxx1112basic_stringIcSt11char_traitsIcESaIcEEE
	leaq	16+_ZTVN5boost13property_tree11ptree_errorE(%rip), %rdx
	movq	16(%rbp), %rax
	movq	%rdx, (%rax)
	nop
	addq	$32, %rsp
	popq	%rbp
	ret
	.seh_endproc
	.section	.text$_ZN5boost13property_tree11ptree_errorD2Ev,"x"
	.linkonce discard
	.align 2
	.globl	_ZN5boost13property_tree11ptree_errorD2Ev
	.def	_ZN5boost13property_tree11ptree_errorD2Ev;	.scl	2;	.type	32;	.endef
	.seh_proc	_ZN5boost13property_tree11ptree_errorD2Ev
_ZN5boost13property_tree11ptree_errorD2Ev:
.LFB3738:
	pushq	%rbp
	.seh_pushreg	%rbp
	movq	%rsp, %rbp
	.seh_setframe	%rbp, 0
	subq	$32, %rsp
	.seh_stackalloc	32
	.seh_endprologue
	movq	%rcx, 16(%rbp)
	leaq	16+_ZTVN5boost13property_tree11ptree_errorE(%rip), %rdx
	movq	16(%rbp), %rax
	movq	%rdx, (%rax)
	movq	16(%rbp), %rax
	movq	%rax, %rcx
	call	_ZNSt13runtime_errorD2Ev
	nop
	addq	$32, %rsp
	popq	%rbp
	ret
	.seh_endproc
	.section	.text$_ZN5boost13property_tree11ptree_errorD1Ev,"x"
	.linkonce discard
	.align 2
	.globl	_ZN5boost13property_tree11ptree_errorD1Ev
	.def	_ZN5boost13property_tree11ptree_errorD1Ev;	.scl	2;	.type	32;	.endef
	.seh_proc	_ZN5boost13property_tree11ptree_errorD1Ev
_ZN5boost13property_tree11ptree_errorD1Ev:
.LFB3739:
	pushq	%rbp
	.seh_pushreg	%rbp
	movq	%rsp, %rbp
	.seh_setframe	%rbp, 0
	subq	$32, %rsp
	.seh_stackalloc	32
	.seh_endprologue
	movq	%rcx, 16(%rbp)
	leaq	16+_ZTVN5boost13property_tree11ptree_errorE(%rip), %rdx
	movq	16(%rbp), %rax
	movq	%rdx, (%rax)
	movq	16(%rbp), %rax
	movq	%rax, %rcx
	call	_ZNSt13runtime_errorD2Ev
	nop
	addq	$32, %rsp
	popq	%rbp
	ret
	.seh_endproc
	.section	.text$_ZN5boost13property_tree11ptree_errorD0Ev,"x"
	.linkonce discard
	.align 2
	.globl	_ZN5boost13property_tree11ptree_errorD0Ev
	.def	_ZN5boost13property_tree11ptree_errorD0Ev;	.scl	2;	.type	32;	.endef
	.seh_proc	_ZN5boost13property_tree11ptree_errorD0Ev
_ZN5boost13property_tree11ptree_errorD0Ev:
.LFB3740:
	pushq	%rbp
	.seh_pushreg	%rbp
	movq	%rsp, %rbp
	.seh_setframe	%rbp, 0
	subq	$32, %rsp
	.seh_stackalloc	32
	.seh_endprologue
	movq	%rcx, 16(%rbp)
	movq	16(%rbp), %rcx
	call	_ZN5boost13property_tree11ptree_errorD1Ev
	movl	$16, %edx
	movq	16(%rbp), %rcx
	call	_ZdlPvy
	nop
	addq	$32, %rsp
	popq	%rbp
	ret
	.seh_endproc
	.section	.text$_ZN5boost13property_tree14ptree_bad_dataD2Ev,"x"
	.linkonce discard
	.align 2
	.globl	_ZN5boost13property_tree14ptree_bad_dataD2Ev
	.def	_ZN5boost13property_tree14ptree_bad_dataD2Ev;	.scl	2;	.type	32;	.endef
	.seh_proc	_ZN5boost13property_tree14ptree_bad_dataD2Ev
_ZN5boost13property_tree14ptree_bad_dataD2Ev:
.LFB3743:
	pushq	%rbp
	.seh_pushreg	%rbp
	movq	%rsp, %rbp
	.seh_setframe	%rbp, 0
	subq	$32, %rsp
	.seh_stackalloc	32
	.seh_endprologue
	movq	%rcx, 16(%rbp)
	leaq	16+_ZTVN5boost13property_tree14ptree_bad_dataE(%rip), %rdx
	movq	16(%rbp), %rax
	movq	%rdx, (%rax)
	movq	16(%rbp), %rax
	addq	$16, %rax
	movq	%rax, %rcx
	call	_ZN5boost3anyD1Ev
	movq	16(%rbp), %rax
	movq	%rax, %rcx
	call	_ZN5boost13property_tree11ptree_errorD2Ev
	nop
	addq	$32, %rsp
	popq	%rbp
	ret
	.seh_endproc
	.section	.text$_ZN5boost13property_tree14ptree_bad_dataD1Ev,"x"
	.linkonce discard
	.align 2
	.globl	_ZN5boost13property_tree14ptree_bad_dataD1Ev
	.def	_ZN5boost13property_tree14ptree_bad_dataD1Ev;	.scl	2;	.type	32;	.endef
	.seh_proc	_ZN5boost13property_tree14ptree_bad_dataD1Ev
_ZN5boost13property_tree14ptree_bad_dataD1Ev:
.LFB3744:
	pushq	%rbp
	.seh_pushreg	%rbp
	movq	%rsp, %rbp
	.seh_setframe	%rbp, 0
	subq	$32, %rsp
	.seh_stackalloc	32
	.seh_endprologue
	movq	%rcx, 16(%rbp)
	leaq	16+_ZTVN5boost13property_tree14ptree_bad_dataE(%rip), %rdx
	movq	16(%rbp), %rax
	movq	%rdx, (%rax)
	movq	16(%rbp), %rax
	addq	$16, %rax
	movq	%rax, %rcx
	call	_ZN5boost3anyD1Ev
	movq	16(%rbp), %rax
	movq	%rax, %rcx
	call	_ZN5boost13property_tree11ptree_errorD2Ev
	nop
	addq	$32, %rsp
	popq	%rbp
	ret
	.seh_endproc
	.section	.text$_ZN5boost13property_tree14ptree_bad_dataD0Ev,"x"
	.linkonce discard
	.align 2
	.globl	_ZN5boost13property_tree14ptree_bad_dataD0Ev
	.def	_ZN5boost13property_tree14ptree_bad_dataD0Ev;	.scl	2;	.type	32;	.endef
	.seh_proc	_ZN5boost13property_tree14ptree_bad_dataD0Ev
_ZN5boost13property_tree14ptree_bad_dataD0Ev:
.LFB3745:
	pushq	%rbp
	.seh_pushreg	%rbp
	movq	%rsp, %rbp
	.seh_setframe	%rbp, 0
	subq	$32, %rsp
	.seh_stackalloc	32
	.seh_endprologue
	movq	%rcx, 16(%rbp)
	movq	16(%rbp), %rcx
	call	_ZN5boost13property_tree14ptree_bad_dataD1Ev
	movl	$24, %edx
	movq	16(%rbp), %rcx
	call	_ZdlPvy
	nop
	addq	$32, %rsp
	popq	%rbp
	ret
	.seh_endproc
	.section	.text$_ZN5boost13property_tree14ptree_bad_pathD2Ev,"x"
	.linkonce discard
	.align 2
	.globl	_ZN5boost13property_tree14ptree_bad_pathD2Ev
	.def	_ZN5boost13property_tree14ptree_bad_pathD2Ev;	.scl	2;	.type	32;	.endef
	.seh_proc	_ZN5boost13property_tree14ptree_bad_pathD2Ev
_ZN5boost13property_tree14ptree_bad_pathD2Ev:
.LFB3749:
	pushq	%rbp
	.seh_pushreg	%rbp
	movq	%rsp, %rbp
	.seh_setframe	%rbp, 0
	subq	$32, %rsp
	.seh_stackalloc	32
	.seh_endprologue
	movq	%rcx, 16(%rbp)
	leaq	16+_ZTVN5boost13property_tree14ptree_bad_pathE(%rip), %rdx
	movq	16(%rbp), %rax
	movq	%rdx, (%rax)
	movq	16(%rbp), %rax
	addq	$16, %rax
	movq	%rax, %rcx
	call	_ZN5boost3anyD1Ev
	movq	16(%rbp), %rax
	movq	%rax, %rcx
	call	_ZN5boost13property_tree11ptree_errorD2Ev
	nop
	addq	$32, %rsp
	popq	%rbp
	ret
	.seh_endproc
	.section	.text$_ZN5boost13property_tree14ptree_bad_pathD1Ev,"x"
	.linkonce discard
	.align 2
	.globl	_ZN5boost13property_tree14ptree_bad_pathD1Ev
	.def	_ZN5boost13property_tree14ptree_bad_pathD1Ev;	.scl	2;	.type	32;	.endef
	.seh_proc	_ZN5boost13property_tree14ptree_bad_pathD1Ev
_ZN5boost13property_tree14ptree_bad_pathD1Ev:
.LFB3750:
	pushq	%rbp
	.seh_pushreg	%rbp
	movq	%rsp, %rbp
	.seh_setframe	%rbp, 0
	subq	$32, %rsp
	.seh_stackalloc	32
	.seh_endprologue
	movq	%rcx, 16(%rbp)
	leaq	16+_ZTVN5boost13property_tree14ptree_bad_pathE(%rip), %rdx
	movq	16(%rbp), %rax
	movq	%rdx, (%rax)
	movq	16(%rbp), %rax
	addq	$16, %rax
	movq	%rax, %rcx
	call	_ZN5boost3anyD1Ev
	movq	16(%rbp), %rax
	movq	%rax, %rcx
	call	_ZN5boost13property_tree11ptree_errorD2Ev
	nop
	addq	$32, %rsp
	popq	%rbp
	ret
	.seh_endproc
	.section	.text$_ZN5boost13property_tree14ptree_bad_pathD0Ev,"x"
	.linkonce discard
	.align 2
	.globl	_ZN5boost13property_tree14ptree_bad_pathD0Ev
	.def	_ZN5boost13property_tree14ptree_bad_pathD0Ev;	.scl	2;	.type	32;	.endef
	.seh_proc	_ZN5boost13property_tree14ptree_bad_pathD0Ev
_ZN5boost13property_tree14ptree_bad_pathD0Ev:
.LFB3751:
	pushq	%rbp
	.seh_pushreg	%rbp
	movq	%rsp, %rbp
	.seh_setframe	%rbp, 0
	subq	$32, %rsp
	.seh_stackalloc	32
	.seh_endprologue
	movq	%rcx, 16(%rbp)
	movq	16(%rbp), %rcx
	call	_ZN5boost13property_tree14ptree_bad_pathD1Ev
	movl	$24, %edx
	movq	16(%rbp), %rcx
	call	_ZdlPvy
	nop
	addq	$32, %rsp
	popq	%rbp
	ret
	.seh_endproc
	.section	.text$_ZN5boost13property_tree6detail13dump_sequenceERKNSt7__cxx1112basic_stringIcSt11char_traitsIcESaIcEEE,"x"
	.linkonce discard
	.globl	_ZN5boost13property_tree6detail13dump_sequenceERKNSt7__cxx1112basic_stringIcSt11char_traitsIcESaIcEEE
	.def	_ZN5boost13property_tree6detail13dump_sequenceERKNSt7__cxx1112basic_stringIcSt11char_traitsIcESaIcEEE;	.scl	2;	.type	32;	.endef
	.seh_proc	_ZN5boost13property_tree6detail13dump_sequenceERKNSt7__cxx1112basic_stringIcSt11char_traitsIcESaIcEEE
_ZN5boost13property_tree6detail13dump_sequenceERKNSt7__cxx1112basic_stringIcSt11char_traitsIcESaIcEEE:
.LFB3969:
	pushq	%rbp
	.seh_pushreg	%rbp
	movq	%rsp, %rbp
	.seh_setframe	%rbp, 0
	subq	$32, %rsp
	.seh_stackalloc	32
	.seh_endprologue
	movq	%rcx, 16(%rbp)
	movq	%rdx, 24(%rbp)
	movq	24(%rbp), %rax
	movq	%rax, %rdx
	movq	16(%rbp), %rcx
	call	_ZNSt7__cxx1112basic_stringIcSt11char_traitsIcESaIcEEC1ERKS4_
	movq	16(%rbp), %rax
	addq	$32, %rsp
	popq	%rbp
	ret
	.seh_endproc
	.section .rdata,"dr"
	.align 8
_ZN5boost6detail15aligned_storageL22alignment_of_max_alignE:
	.quad	16
_ZN5boost12placeholdersL2_1E:
	.space 1
_ZN5boost12placeholdersL2_2E:
	.space 1
_ZN5boost12placeholdersL2_3E:
	.space 1
_ZN5boost12placeholdersL2_4E:
	.space 1
_ZN5boost12placeholdersL2_5E:
	.space 1
_ZN5boost12placeholdersL2_6E:
	.space 1
_ZN5boost12placeholdersL2_7E:
	.space 1
_ZN5boost12placeholdersL2_8E:
	.space 1
_ZN5boost12placeholdersL2_9E:
	.space 1
	.align 8
_ZN5boost11multi_index6detailL29sequenced_index_sort_max_fillE:
	.quad	65
	.section	.text$_ZN5boost13property_tree17file_parser_errorC2ERKNSt7__cxx1112basic_stringIcSt11char_traitsIcESaIcEEES9_m,"x"
	.linkonce discard
	.align 2
	.globl	_ZN5boost13property_tree17file_parser_errorC2ERKNSt7__cxx1112basic_stringIcSt11char_traitsIcESaIcEEES9_m
	.def	_ZN5boost13property_tree17file_parser_errorC2ERKNSt7__cxx1112basic_stringIcSt11char_traitsIcESaIcEEES9_m;	.scl	2;	.type	32;	.endef
	.seh_proc	_ZN5boost13property_tree17file_parser_errorC2ERKNSt7__cxx1112basic_stringIcSt11char_traitsIcESaIcEEES9_m
_ZN5boost13property_tree17file_parser_errorC2ERKNSt7__cxx1112basic_stringIcSt11char_traitsIcESaIcEEES9_m:
.LFB5894:
	pushq	%rbp
	.seh_pushreg	%rbp
	pushq	%rbx
	.seh_pushreg	%rbx
	subq	$72, %rsp
	.seh_stackalloc	72
	leaq	128(%rsp), %rbp
	.seh_setframe	%rbp, 128
	.seh_endprologue
	movq	%rcx, -32(%rbp)
	movq	%rdx, -24(%rbp)
	movq	%r8, -16(%rbp)
	movl	%r9d, -8(%rbp)
	movq	-32(%rbp), %rbx
	leaq	-96(%rbp), %rax
	movl	-8(%rbp), %r8d
	movq	-16(%rbp), %rcx
	movq	-24(%rbp), %rdx
	movl	%r8d, %r9d
	movq	%rcx, %r8
	movq	%rax, %rcx
.LEHB4:
	call	_ZN5boost13property_tree17file_parser_error11format_whatERKNSt7__cxx1112basic_stringIcSt11char_traitsIcESaIcEEES9_m
.LEHE4:
	leaq	-96(%rbp), %rax
	movq	%rax, %rdx
	movq	%rbx, %rcx
.LEHB5:
	call	_ZN5boost13property_tree11ptree_errorC2ERKNSt7__cxx1112basic_stringIcSt11char_traitsIcESaIcEEE
.LEHE5:
	leaq	-96(%rbp), %rax
	movq	%rax, %rcx
	call	_ZNSt7__cxx1112basic_stringIcSt11char_traitsIcESaIcEED1Ev
	leaq	16+_ZTVN5boost13property_tree17file_parser_errorE(%rip), %rdx
	movq	-32(%rbp), %rax
	movq	%rdx, (%rax)
	movq	-32(%rbp), %rax
	leaq	16(%rax), %rcx
	movq	-24(%rbp), %rax
	movq	%rax, %rdx
.LEHB6:
	call	_ZNSt7__cxx1112basic_stringIcSt11char_traitsIcESaIcEEC1ERKS4_
.LEHE6:
	movq	-32(%rbp), %rax
	leaq	48(%rax), %rcx
	movq	-16(%rbp), %rax
	movq	%rax, %rdx
.LEHB7:
	call	_ZNSt7__cxx1112basic_stringIcSt11char_traitsIcESaIcEEC1ERKS4_
.LEHE7:
	movq	-32(%rbp), %rax
	movl	-8(%rbp), %edx
	movl	%edx, 80(%rax)
	jmp	.L77
.L74:
	movq	%rax, %rbx
	leaq	-96(%rbp), %rax
	movq	%rax, %rcx
	call	_ZNSt7__cxx1112basic_stringIcSt11char_traitsIcESaIcEED1Ev
	movq	%rbx, %rax
	movq	%rax, %rcx
.LEHB8:
	call	_Unwind_Resume
.L76:
	movq	%rax, %rbx
	movq	-32(%rbp), %rax
	addq	$16, %rax
	movq	%rax, %rcx
	call	_ZNSt7__cxx1112basic_stringIcSt11char_traitsIcESaIcEED1Ev
	jmp	.L73
.L75:
	movq	%rax, %rbx
.L73:
	movq	-32(%rbp), %rax
	movq	%rax, %rcx
	call	_ZN5boost13property_tree11ptree_errorD2Ev
	movq	%rbx, %rax
	movq	%rax, %rcx
	call	_Unwind_Resume
	nop
.LEHE8:
.L77:
	addq	$72, %rsp
	popq	%rbx
	popq	%rbp
	ret
	.seh_handler	__gxx_personality_seh0, @unwind, @except
	.seh_handlerdata
.LLSDA5894:
	.byte	0xff
	.byte	0xff
	.byte	0x1
	.uleb128 .LLSDACSE5894-.LLSDACSB5894
.LLSDACSB5894:
	.uleb128 .LEHB4-.LFB5894
	.uleb128 .LEHE4-.LEHB4
	.uleb128 0
	.uleb128 0
	.uleb128 .LEHB5-.LFB5894
	.uleb128 .LEHE5-.LEHB5
	.uleb128 .L74-.LFB5894
	.uleb128 0
	.uleb128 .LEHB6-.LFB5894
	.uleb128 .LEHE6-.LEHB6
	.uleb128 .L75-.LFB5894
	.uleb128 0
	.uleb128 .LEHB7-.LFB5894
	.uleb128 .LEHE7-.LEHB7
	.uleb128 .L76-.LFB5894
	.uleb128 0
	.uleb128 .LEHB8-.LFB5894
	.uleb128 .LEHE8-.LEHB8
	.uleb128 0
	.uleb128 0
.LLSDACSE5894:
	.section	.text$_ZN5boost13property_tree17file_parser_errorC2ERKNSt7__cxx1112basic_stringIcSt11char_traitsIcESaIcEEES9_m,"x"
	.linkonce discard
	.seh_endproc
	.section	.text$_ZN5boost13property_tree17file_parser_errorD2Ev,"x"
	.linkonce discard
	.align 2
	.globl	_ZN5boost13property_tree17file_parser_errorD2Ev
	.def	_ZN5boost13property_tree17file_parser_errorD2Ev;	.scl	2;	.type	32;	.endef
	.seh_proc	_ZN5boost13property_tree17file_parser_errorD2Ev
_ZN5boost13property_tree17file_parser_errorD2Ev:
.LFB5897:
	pushq	%rbp
	.seh_pushreg	%rbp
	movq	%rsp, %rbp
	.seh_setframe	%rbp, 0
	subq	$32, %rsp
	.seh_stackalloc	32
	.seh_endprologue
	movq	%rcx, 16(%rbp)
	leaq	16+_ZTVN5boost13property_tree17file_parser_errorE(%rip), %rdx
	movq	16(%rbp), %rax
	movq	%rdx, (%rax)
	movq	16(%rbp), %rax
	addq	$48, %rax
	movq	%rax, %rcx
	call	_ZNSt7__cxx1112basic_stringIcSt11char_traitsIcESaIcEED1Ev
	movq	16(%rbp), %rax
	addq	$16, %rax
	movq	%rax, %rcx
	call	_ZNSt7__cxx1112basic_stringIcSt11char_traitsIcESaIcEED1Ev
	movq	16(%rbp), %rax
	movq	%rax, %rcx
	call	_ZN5boost13property_tree11ptree_errorD2Ev
	nop
	addq	$32, %rsp
	popq	%rbp
	ret
	.seh_endproc
	.section	.text$_ZN5boost13property_tree17file_parser_errorD1Ev,"x"
	.linkonce discard
	.align 2
	.globl	_ZN5boost13property_tree17file_parser_errorD1Ev
	.def	_ZN5boost13property_tree17file_parser_errorD1Ev;	.scl	2;	.type	32;	.endef
	.seh_proc	_ZN5boost13property_tree17file_parser_errorD1Ev
_ZN5boost13property_tree17file_parser_errorD1Ev:
.LFB5898:
	pushq	%rbp
	.seh_pushreg	%rbp
	movq	%rsp, %rbp
	.seh_setframe	%rbp, 0
	subq	$32, %rsp
	.seh_stackalloc	32
	.seh_endprologue
	movq	%rcx, 16(%rbp)
	leaq	16+_ZTVN5boost13property_tree17file_parser_errorE(%rip), %rdx
	movq	16(%rbp), %rax
	movq	%rdx, (%rax)
	movq	16(%rbp), %rax
	addq	$48, %rax
	movq	%rax, %rcx
	call	_ZNSt7__cxx1112basic_stringIcSt11char_traitsIcESaIcEED1Ev
	movq	16(%rbp), %rax
	addq	$16, %rax
	movq	%rax, %rcx
	call	_ZNSt7__cxx1112basic_stringIcSt11char_traitsIcESaIcEED1Ev
	movq	16(%rbp), %rax
	movq	%rax, %rcx
	call	_ZN5boost13property_tree11ptree_errorD2Ev
	nop
	addq	$32, %rsp
	popq	%rbp
	ret
	.seh_endproc
	.section	.text$_ZN5boost13property_tree17file_parser_errorD0Ev,"x"
	.linkonce discard
	.align 2
	.globl	_ZN5boost13property_tree17file_parser_errorD0Ev
	.def	_ZN5boost13property_tree17file_parser_errorD0Ev;	.scl	2;	.type	32;	.endef
	.seh_proc	_ZN5boost13property_tree17file_parser_errorD0Ev
_ZN5boost13property_tree17file_parser_errorD0Ev:
.LFB5899:
	pushq	%rbp
	.seh_pushreg	%rbp
	movq	%rsp, %rbp
	.seh_setframe	%rbp, 0
	subq	$32, %rsp
	.seh_stackalloc	32
	.seh_endprologue
	movq	%rcx, 16(%rbp)
	movq	16(%rbp), %rcx
	call	_ZN5boost13property_tree17file_parser_errorD1Ev
	movl	$88, %edx
	movq	16(%rbp), %rcx
	call	_ZdlPvy
	nop
	addq	$32, %rsp
	popq	%rbp
	ret
	.seh_endproc
	.section .rdata,"dr"
.LC0:
	.ascii "<unspecified file>\0"
.LC1:
	.ascii ": \0"
	.section	.text$_ZN5boost13property_tree17file_parser_error11format_whatERKNSt7__cxx1112basic_stringIcSt11char_traitsIcESaIcEEES9_m,"x"
	.linkonce discard
	.globl	_ZN5boost13property_tree17file_parser_error11format_whatERKNSt7__cxx1112basic_stringIcSt11char_traitsIcESaIcEEES9_m
	.def	_ZN5boost13property_tree17file_parser_error11format_whatERKNSt7__cxx1112basic_stringIcSt11char_traitsIcESaIcEEES9_m;	.scl	2;	.type	32;	.endef
	.seh_proc	_ZN5boost13property_tree17file_parser_error11format_whatERKNSt7__cxx1112basic_stringIcSt11char_traitsIcESaIcEEES9_m
_ZN5boost13property_tree17file_parser_error11format_whatERKNSt7__cxx1112basic_stringIcSt11char_traitsIcESaIcEEES9_m:
.LFB5903:
	pushq	%rbp
	.seh_pushreg	%rbp
	pushq	%rbx
	.seh_pushreg	%rbx
	subq	$440, %rsp
	.seh_stackalloc	440
	leaq	128(%rsp), %rbp
	.seh_setframe	%rbp, 128
	.seh_endprologue
	movq	%rcx, 336(%rbp)
	movq	%rdx, 344(%rbp)
	movq	%r8, 352(%rbp)
	movl	%r9d, 360(%rbp)
	leaq	-96(%rbp), %rax
	movq	%rax, %rcx
.LEHB9:
	call	_ZNSt7__cxx1118basic_stringstreamIcSt11char_traitsIcESaIcEEC1Ev
.LEHE9:
	movq	352(%rbp), %rax
	movq	%rax, %rcx
	call	_ZNKSt7__cxx1112basic_stringIcSt11char_traitsIcESaIcEE5emptyEv
	testb	%al, %al
	je	.L82
	leaq	.LC0(%rip), %rax
	jmp	.L83
.L82:
	movq	352(%rbp), %rax
	movq	%rax, %rcx
	call	_ZNKSt7__cxx1112basic_stringIcSt11char_traitsIcESaIcEE5c_strEv
.L83:
	leaq	-96(%rbp), %rdx
	leaq	16(%rdx), %rcx
	movq	%rax, %rdx
.LEHB10:
	call	_ZStlsISt11char_traitsIcEERSt13basic_ostreamIcT_ES5_PKc
	cmpl	$0, 360(%rbp)
	je	.L84
	leaq	-96(%rbp), %rax
	addq	$16, %rax
	movl	$40, %edx
	movq	%rax, %rcx
	call	_ZStlsISt11char_traitsIcEERSt13basic_ostreamIcT_ES5_c
	movq	%rax, %rcx
	movl	360(%rbp), %eax
	movl	%eax, %edx
	call	_ZNSolsEm
	movl	$41, %edx
	movq	%rax, %rcx
	call	_ZStlsISt11char_traitsIcEERSt13basic_ostreamIcT_ES5_c
.L84:
	leaq	-96(%rbp), %rax
	addq	$16, %rax
	leaq	.LC1(%rip), %rdx
	movq	%rax, %rcx
	call	_ZStlsISt11char_traitsIcEERSt13basic_ostreamIcT_ES5_PKc
	movq	%rax, %rcx
	movq	344(%rbp), %rax
	movq	%rax, %rdx
	call	_ZStlsIcSt11char_traitsIcESaIcEERSt13basic_ostreamIT_T0_ES7_RKNSt7__cxx1112basic_stringIS4_S5_T1_EE
	movq	336(%rbp), %rax
	leaq	-96(%rbp), %rdx
	movq	%rax, %rcx
	call	_ZNKSt7__cxx1118basic_stringstreamIcSt11char_traitsIcESaIcEE3strEv
.LEHE10:
	nop
	leaq	-96(%rbp), %rax
	movq	%rax, %rcx
	call	_ZNSt7__cxx1118basic_stringstreamIcSt11char_traitsIcESaIcEED1Ev
	jmp	.L88
.L87:
	movq	%rax, %rbx
	leaq	-96(%rbp), %rax
	movq	%rax, %rcx
	call	_ZNSt7__cxx1118basic_stringstreamIcSt11char_traitsIcESaIcEED1Ev
	movq	%rbx, %rax
	movq	%rax, %rcx
.LEHB11:
	call	_Unwind_Resume
.LEHE11:
.L88:
	movq	336(%rbp), %rax
	addq	$440, %rsp
	popq	%rbx
	popq	%rbp
	ret
	.seh_handler	__gxx_personality_seh0, @unwind, @except
	.seh_handlerdata
.LLSDA5903:
	.byte	0xff
	.byte	0xff
	.byte	0x1
	.uleb128 .LLSDACSE5903-.LLSDACSB5903
.LLSDACSB5903:
	.uleb128 .LEHB9-.LFB5903
	.uleb128 .LEHE9-.LEHB9
	.uleb128 0
	.uleb128 0
	.uleb128 .LEHB10-.LFB5903
	.uleb128 .LEHE10-.LEHB10
	.uleb128 .L87-.LFB5903
	.uleb128 0
	.uleb128 .LEHB11-.LFB5903
	.uleb128 .LEHE11-.LEHB11
	.uleb128 0
	.uleb128 0
.LLSDACSE5903:
	.section	.text$_ZN5boost13property_tree17file_parser_error11format_whatERKNSt7__cxx1112basic_stringIcSt11char_traitsIcESaIcEEES9_m,"x"
	.linkonce discard
	.seh_endproc
	.section	.text$_ZN5boost13property_tree10xml_parser16xml_parser_errorC1ERKNSt7__cxx1112basic_stringIcSt11char_traitsIcESaIcEEESA_m,"x"
	.linkonce discard
	.align 2
	.globl	_ZN5boost13property_tree10xml_parser16xml_parser_errorC1ERKNSt7__cxx1112basic_stringIcSt11char_traitsIcESaIcEEESA_m
	.def	_ZN5boost13property_tree10xml_parser16xml_parser_errorC1ERKNSt7__cxx1112basic_stringIcSt11char_traitsIcESaIcEEESA_m;	.scl	2;	.type	32;	.endef
	.seh_proc	_ZN5boost13property_tree10xml_parser16xml_parser_errorC1ERKNSt7__cxx1112basic_stringIcSt11char_traitsIcESaIcEEESA_m
_ZN5boost13property_tree10xml_parser16xml_parser_errorC1ERKNSt7__cxx1112basic_stringIcSt11char_traitsIcESaIcEEESA_m:
.LFB5906:
	pushq	%rbp
	.seh_pushreg	%rbp
	movq	%rsp, %rbp
	.seh_setframe	%rbp, 0
	subq	$32, %rsp
	.seh_stackalloc	32
	.seh_endprologue
	movq	%rcx, 16(%rbp)
	movq	%rdx, 24(%rbp)
	movq	%r8, 32(%rbp)
	movl	%r9d, 40(%rbp)
	movq	16(%rbp), %rax
	movl	40(%rbp), %r8d
	movq	32(%rbp), %rcx
	movq	24(%rbp), %rdx
	movl	%r8d, %r9d
	movq	%rcx, %r8
	movq	%rax, %rcx
	call	_ZN5boost13property_tree17file_parser_errorC2ERKNSt7__cxx1112basic_stringIcSt11char_traitsIcESaIcEEES9_m
	leaq	16+_ZTVN5boost13property_tree10xml_parser16xml_parser_errorE(%rip), %rdx
	movq	16(%rbp), %rax
	movq	%rdx, (%rax)
	nop
	addq	$32, %rsp
	popq	%rbp
	ret
	.seh_endproc
	.section .rdata,"dr"
	.align 4
_ZN5boost13property_tree10xml_parserL14no_concat_textE:
	.long	1
	.align 4
_ZN5boost13property_tree10xml_parserL11no_commentsE:
	.long	2
	.align 4
_ZN5boost13property_tree10xml_parserL15trim_whitespaceE:
	.long	4
	.section	.text$_ZN5boost13property_tree10xml_parser14validate_flagsEi,"x"
	.linkonce discard
	.globl	_ZN5boost13property_tree10xml_parser14validate_flagsEi
	.def	_ZN5boost13property_tree10xml_parser14validate_flagsEi;	.scl	2;	.type	32;	.endef
	.seh_proc	_ZN5boost13property_tree10xml_parser14validate_flagsEi
_ZN5boost13property_tree10xml_parser14validate_flagsEi:
.LFB5955:
	pushq	%rbp
	.seh_pushreg	%rbp
	movq	%rsp, %rbp
	.seh_setframe	%rbp, 0
	.seh_endprologue
	movl	%ecx, 16(%rbp)
	movl	16(%rbp), %eax
	andl	$-8, %eax
	testl	%eax, %eax
	sete	%al
	popq	%rbp
	ret
	.seh_endproc
	.section	.text$_ZN5boost13property_tree6detail8rapidxml11parse_errorC1EPKcPv,"x"
	.linkonce discard
	.align 2
	.globl	_ZN5boost13property_tree6detail8rapidxml11parse_errorC1EPKcPv
	.def	_ZN5boost13property_tree6detail8rapidxml11parse_errorC1EPKcPv;	.scl	2;	.type	32;	.endef
	.seh_proc	_ZN5boost13property_tree6detail8rapidxml11parse_errorC1EPKcPv
_ZN5boost13property_tree6detail8rapidxml11parse_errorC1EPKcPv:
.LFB5958:
	pushq	%rbp
	.seh_pushreg	%rbp
	movq	%rsp, %rbp
	.seh_setframe	%rbp, 0
	subq	$32, %rsp
	.seh_stackalloc	32
	.seh_endprologue
	movq	%rcx, 16(%rbp)
	movq	%rdx, 24(%rbp)
	movq	%r8, 32(%rbp)
	movq	16(%rbp), %rax
	movq	%rax, %rcx
	call	_ZNSt9exceptionC2Ev
	leaq	16+_ZTVN5boost13property_tree6detail8rapidxml11parse_errorE(%rip), %rdx
	movq	16(%rbp), %rax
	movq	%rdx, (%rax)
	movq	16(%rbp), %rax
	movq	24(%rbp), %rdx
	movq	%rdx, 8(%rax)
	movq	16(%rbp), %rax
	movq	32(%rbp), %rdx
	movq	%rdx, 16(%rax)
	nop
	addq	$32, %rsp
	popq	%rbp
	ret
	.seh_endproc
	.section	.text$_ZNK5boost13property_tree6detail8rapidxml11parse_error4whatEv,"x"
	.linkonce discard
	.align 2
	.globl	_ZNK5boost13property_tree6detail8rapidxml11parse_error4whatEv
	.def	_ZNK5boost13property_tree6detail8rapidxml11parse_error4whatEv;	.scl	2;	.type	32;	.endef
	.seh_proc	_ZNK5boost13property_tree6detail8rapidxml11parse_error4whatEv
_ZNK5boost13property_tree6detail8rapidxml11parse_error4whatEv:
.LFB5959:
	pushq	%rbp
	.seh_pushreg	%rbp
	movq	%rsp, %rbp
	.seh_setframe	%rbp, 0
	.seh_endprologue
	movq	%rcx, 16(%rbp)
	movq	16(%rbp), %rax
	movq	8(%rax), %rax
	popq	%rbp
	ret
	.seh_endproc
	.section .rdata,"dr"
	.align 4
_ZN5boost13property_tree6detail8rapidxmlL19parse_no_data_nodesE:
	.long	1
	.align 4
_ZN5boost13property_tree6detail8rapidxmlL23parse_no_element_valuesE:
	.long	2
	.align 4
_ZN5boost13property_tree6detail8rapidxmlL27parse_no_string_terminatorsE:
	.long	4
	.align 4
_ZN5boost13property_tree6detail8rapidxmlL27parse_no_entity_translationE:
	.long	8
	.align 4
_ZN5boost13property_tree6detail8rapidxmlL13parse_no_utf8E:
	.long	16
	.align 4
_ZN5boost13property_tree6detail8rapidxmlL22parse_declaration_nodeE:
	.long	32
	.align 4
_ZN5boost13property_tree6detail8rapidxmlL19parse_comment_nodesE:
	.long	64
	.align 4
_ZN5boost13property_tree6detail8rapidxmlL18parse_doctype_nodeE:
	.long	128
	.align 4
_ZN5boost13property_tree6detail8rapidxmlL14parse_pi_nodesE:
	.long	256
	.align 4
_ZN5boost13property_tree6detail8rapidxmlL27parse_validate_closing_tagsE:
	.long	512
	.align 4
_ZN5boost13property_tree6detail8rapidxmlL21parse_trim_whitespaceE:
	.long	1024
	.align 4
_ZN5boost13property_tree6detail8rapidxmlL26parse_normalize_whitespaceE:
	.long	2048
	.align 4
_ZN5boost13property_tree6detail8rapidxmlL13parse_defaultE:
	.space 4
	.align 4
_ZN5boost13property_tree6detail8rapidxmlL21parse_non_destructiveE:
	.long	12
	.align 4
_ZN5boost13property_tree6detail8rapidxmlL13parse_fastestE:
	.long	13
	.align 4
_ZN5boost13property_tree6detail8rapidxmlL10parse_fullE:
	.long	992
	.text
	.align 2
	.globl	_ZN5Anime4dateC2Ev
	.def	_ZN5Anime4dateC2Ev;	.scl	2;	.type	32;	.endef
	.seh_proc	_ZN5Anime4dateC2Ev
_ZN5Anime4dateC2Ev:
.LFB6215:
	pushq	%rbp
	.seh_pushreg	%rbp
	movq	%rsp, %rbp
	.seh_setframe	%rbp, 0
	.seh_endprologue
	movq	%rcx, 16(%rbp)
	movq	16(%rbp), %rax
	movzbl	(%rax), %edx
	andl	$-32, %edx
	movb	%dl, (%rax)
	movq	16(%rbp), %rax
	movzbl	1(%rax), %edx
	andl	$-16, %edx
	movb	%dl, 1(%rax)
	movq	16(%rbp), %rax
	movzwl	2(%rax), %edx
	andw	$-32768, %dx
	movw	%dx, 2(%rax)
	nop
	popq	%rbp
	ret
	.seh_endproc
	.globl	_ZN5Anime4dateC1Ev
	.def	_ZN5Anime4dateC1Ev;	.scl	2;	.type	32;	.endef
	.set	_ZN5Anime4dateC1Ev,_ZN5Anime4dateC2Ev
	.align 2
	.globl	_ZN5Anime4dateC2Ehht
	.def	_ZN5Anime4dateC2Ehht;	.scl	2;	.type	32;	.endef
	.seh_proc	_ZN5Anime4dateC2Ehht
_ZN5Anime4dateC2Ehht:
.LFB6218:
	pushq	%rbp
	.seh_pushreg	%rbp
	movq	%rsp, %rbp
	.seh_setframe	%rbp, 0
	.seh_endprologue
	movq	%rcx, 16(%rbp)
	movl	%r8d, %ecx
	movl	%r9d, %eax
	movb	%dl, 24(%rbp)
	movl	%ecx, %edx
	movb	%dl, 32(%rbp)
	movw	%ax, 40(%rbp)
	movzbl	24(%rbp), %eax
	andl	$31, %eax
	movl	%eax, %edx
	movq	16(%rbp), %rax
	movl	%edx, %ecx
	andl	$31, %ecx
	movzbl	(%rax), %edx
	andl	$-32, %edx
	orl	%ecx, %edx
	movb	%dl, (%rax)
	movzbl	32(%rbp), %eax
	andl	$15, %eax
	movl	%eax, %edx
	movq	16(%rbp), %rax
	movl	%edx, %ecx
	andl	$15, %ecx
	movzbl	1(%rax), %edx
	andl	$-16, %edx
	orl	%ecx, %edx
	movb	%dl, 1(%rax)
	movzwl	40(%rbp), %eax
	andw	$32767, %ax
	movl	%eax, %edx
	movq	16(%rbp), %rax
	movl	%edx, %ecx
	andw	$32767, %cx
	movzwl	2(%rax), %edx
	andw	$-32768, %dx
	orl	%ecx, %edx
	movw	%dx, 2(%rax)
	nop
	popq	%rbp
	ret
	.seh_endproc
	.globl	_ZN5Anime4dateC1Ehht
	.def	_ZN5Anime4dateC1Ehht;	.scl	2;	.type	32;	.endef
	.set	_ZN5Anime4dateC1Ehht,_ZN5Anime4dateC2Ehht
	.section	.text$_ZN5boost13property_tree11string_pathINSt7__cxx1112basic_stringIcSt11char_traitsIcESaIcEEENS0_13id_translatorIS7_EEED1Ev,"x"
	.linkonce discard
	.align 2
	.globl	_ZN5boost13property_tree11string_pathINSt7__cxx1112basic_stringIcSt11char_traitsIcESaIcEEENS0_13id_translatorIS7_EEED1Ev
	.def	_ZN5boost13property_tree11string_pathINSt7__cxx1112basic_stringIcSt11char_traitsIcESaIcEEENS0_13id_translatorIS7_EEED1Ev;	.scl	2;	.type	32;	.endef
	.seh_proc	_ZN5boost13property_tree11string_pathINSt7__cxx1112basic_stringIcSt11char_traitsIcESaIcEEENS0_13id_translatorIS7_EEED1Ev
_ZN5boost13property_tree11string_pathINSt7__cxx1112basic_stringIcSt11char_traitsIcESaIcEEENS0_13id_translatorIS7_EEED1Ev:
.LFB6223:
	pushq	%rbp
	.seh_pushreg	%rbp
	movq	%rsp, %rbp
	.seh_setframe	%rbp, 0
	subq	$32, %rsp
	.seh_stackalloc	32
	.seh_endprologue
	movq	%rcx, 16(%rbp)
	movq	16(%rbp), %rax
	movq	%rax, %rcx
	call	_ZNSt7__cxx1112basic_stringIcSt11char_traitsIcESaIcEED1Ev
	nop
	addq	$32, %rsp
	popq	%rbp
	ret
	.seh_endproc
	.def	__main;	.scl	2;	.type	32;	.endef
	.section .rdata,"dr"
.LC2:
	.ascii "animeList.xml\0"
.LC3:
	.ascii "myanimelist.myinfo\0"
.LC4:
	.ascii "pause\0"
	.text
	.globl	main
	.def	main;	.scl	2;	.type	32;	.endef
	.seh_proc	main
main:
.LFB6220:
	pushq	%rbp
	.seh_pushreg	%rbp
	pushq	%rsi
	.seh_pushreg	%rsi
	pushq	%rbx
	.seh_pushreg	%rbx
	movq	%rsp, %rbp
	.seh_setframe	%rbp, 0
	subq	$224, %rsp
	.seh_stackalloc	224
	.seh_endprologue
	call	__main
	leaq	-192(%rbp), %rax
	movq	%rax, %rcx
.LEHB12:
	call	_ZN5boost13property_tree11basic_ptreeINSt7__cxx1112basic_stringIcSt11char_traitsIcESaIcEEES7_St4lessIS7_EEC1Ev
.LEHE12:
	leaq	-152(%rbp), %rax
	movq	%rax, %rcx
	call	_ZNSt6localeC1Ev
	leaq	-97(%rbp), %rax
	movq	%rax, %rcx
	call	_ZNSaIcEC1Ev
	leaq	-97(%rbp), %rdx
	leaq	-144(%rbp), %rax
	movq	%rdx, %r8
	leaq	.LC2(%rip), %rdx
	movq	%rax, %rcx
.LEHB13:
	call	_ZNSt7__cxx1112basic_stringIcSt11char_traitsIcESaIcEEC1EPKcRKS3_
.LEHE13:
	leaq	-152(%rbp), %rcx
	leaq	-192(%rbp), %rdx
	leaq	-144(%rbp), %rax
	movq	%rcx, %r9
	movl	$0, %r8d
	movq	%rax, %rcx
.LEHB14:
	call	_ZN5boost13property_tree10xml_parser8read_xmlINS0_11basic_ptreeINSt7__cxx1112basic_stringIcSt11char_traitsIcESaIcEEES9_St4lessIS9_EEEEEvRKS9_RT_iRKSt6locale
.LEHE14:
	leaq	-144(%rbp), %rax
	movq	%rax, %rcx
	call	_ZNSt7__cxx1112basic_stringIcSt11char_traitsIcESaIcEED1Ev
	leaq	-97(%rbp), %rax
	movq	%rax, %rcx
	call	_ZNSaIcED1Ev
	leaq	-152(%rbp), %rax
	movq	%rax, %rcx
	call	_ZNSt6localeD1Ev
	leaq	-64(%rbp), %rax
	movl	%ebx, %r9d
	movl	$46, %r8d
	leaq	.LC3(%rip), %rdx
	movq	%rax, %rcx
.LEHB15:
	call	_ZN5boost13property_tree11string_pathINSt7__cxx1112basic_stringIcSt11char_traitsIcESaIcEEENS0_13id_translatorIS7_EEEC1EPKccS9_
.LEHE15:
	leaq	-96(%rbp), %rax
	leaq	-64(%rbp), %rcx
	leaq	-192(%rbp), %rdx
	movq	%rcx, %r8
	movq	%rax, %rcx
.LEHB16:
	call	_ZNK5boost13property_tree11basic_ptreeINSt7__cxx1112basic_stringIcSt11char_traitsIcESaIcEEES7_St4lessIS7_EE3getIS7_EET_RKNS0_11string_pathIS7_NS0_13id_translatorIS7_EEEE
.LEHE16:
	leaq	-96(%rbp), %rax
	movq	%rax, %rdx
	movq	.refptr._ZSt4cout(%rip), %rcx
.LEHB17:
	call	_ZStlsIcSt11char_traitsIcESaIcEERSt13basic_ostreamIT_T0_ES7_RKNSt7__cxx1112basic_stringIS4_S5_T1_EE
	movq	.refptr._ZSt4endlIcSt11char_traitsIcEERSt13basic_ostreamIT_T0_ES6_(%rip), %rdx
	movq	%rax, %rcx
	call	_ZNSolsEPFRSoS_E
.LEHE17:
	leaq	-96(%rbp), %rax
	movq	%rax, %rcx
	call	_ZNSt7__cxx1112basic_stringIcSt11char_traitsIcESaIcEED1Ev
	leaq	-64(%rbp), %rax
	movq	%rax, %rcx
	call	_ZN5boost13property_tree11string_pathINSt7__cxx1112basic_stringIcSt11char_traitsIcESaIcEEENS0_13id_translatorIS7_EEED1Ev
	leaq	-192(%rbp), %rax
	movq	%rax, %rcx
	call	_ZN5boost13property_tree11basic_ptreeINSt7__cxx1112basic_stringIcSt11char_traitsIcESaIcEEES7_St4lessIS7_EED1Ev
.L107:
	leaq	.LC4(%rip), %rcx
.LEHB18:
	call	system
	movl	$0, %eax
	jmp	.L116
.L111:
	movq	%rax, %rsi
	movq	%rdx, %rbx
	leaq	-144(%rbp), %rax
	movq	%rax, %rcx
	call	_ZNSt7__cxx1112basic_stringIcSt11char_traitsIcESaIcEED1Ev
	jmp	.L101
.L110:
	movq	%rax, %rsi
	movq	%rdx, %rbx
.L101:
	leaq	-97(%rbp), %rax
	movq	%rax, %rcx
	call	_ZNSaIcED1Ev
	leaq	-152(%rbp), %rax
	movq	%rax, %rcx
	call	_ZNSt6localeD1Ev
	jmp	.L102
.L114:
	movq	%rax, %rsi
	movq	%rdx, %rbx
	leaq	-96(%rbp), %rax
	movq	%rax, %rcx
	call	_ZNSt7__cxx1112basic_stringIcSt11char_traitsIcESaIcEED1Ev
	jmp	.L104
.L113:
	movq	%rax, %rsi
	movq	%rdx, %rbx
.L104:
	leaq	-64(%rbp), %rax
	movq	%rax, %rcx
	call	_ZN5boost13property_tree11string_pathINSt7__cxx1112basic_stringIcSt11char_traitsIcESaIcEEENS0_13id_translatorIS7_EEED1Ev
	jmp	.L102
.L112:
	movq	%rax, %rsi
	movq	%rdx, %rbx
.L102:
	leaq	-192(%rbp), %rax
	movq	%rax, %rcx
	call	_ZN5boost13property_tree11basic_ptreeINSt7__cxx1112basic_stringIcSt11char_traitsIcESaIcEEES7_St4lessIS7_EED1Ev
	movq	%rsi, %rax
	movq	%rbx, %rdx
	jmp	.L105
.L109:
.L105:
	cmpq	$1, %rdx
	je	.L106
	movq	%rax, %rcx
	call	_Unwind_Resume
.LEHE18:
.L106:
	movq	%rax, %rcx
	call	__cxa_begin_catch
	movq	%rax, -8(%rbp)
	movq	-8(%rbp), %rax
	movq	(%rax), %rax
	addq	$16, %rax
	movq	(%rax), %rdx
	movq	-8(%rbp), %rax
	movq	%rax, %rcx
	call	*%rdx
	movq	%rax, %rdx
	movq	.refptr._ZSt4cout(%rip), %rcx
.LEHB19:
	call	_ZStlsISt11char_traitsIcEERSt13basic_ostreamIcT_ES5_PKc
	movq	.refptr._ZSt4endlIcSt11char_traitsIcEERSt13basic_ostreamIT_T0_ES6_(%rip), %rdx
	movq	%rax, %rcx
	call	_ZNSolsEPFRSoS_E
.LEHE19:
	call	__cxa_end_catch
	jmp	.L107
.L115:
	movq	%rax, %rbx
	call	__cxa_end_catch
	movq	%rbx, %rax
	movq	%rax, %rcx
.LEHB20:
	call	_Unwind_Resume
.LEHE20:
.L116:
	addq	$224, %rsp
	popq	%rbx
	popq	%rsi
	popq	%rbp
	ret
	.seh_handler	__gxx_personality_seh0, @unwind, @except
	.seh_handlerdata
	.align 4
.LLSDA6220:
	.byte	0xff
	.byte	0x9b
	.uleb128 .LLSDATT6220-.LLSDATTD6220
.LLSDATTD6220:
	.byte	0x1
	.uleb128 .LLSDACSE6220-.LLSDACSB6220
.LLSDACSB6220:
	.uleb128 .LEHB12-.LFB6220
	.uleb128 .LEHE12-.LEHB12
	.uleb128 .L109-.LFB6220
	.uleb128 0x1
	.uleb128 .LEHB13-.LFB6220
	.uleb128 .LEHE13-.LEHB13
	.uleb128 .L110-.LFB6220
	.uleb128 0x3
	.uleb128 .LEHB14-.LFB6220
	.uleb128 .LEHE14-.LEHB14
	.uleb128 .L111-.LFB6220
	.uleb128 0x3
	.uleb128 .LEHB15-.LFB6220
	.uleb128 .LEHE15-.LEHB15
	.uleb128 .L112-.LFB6220
	.uleb128 0x3
	.uleb128 .LEHB16-.LFB6220
	.uleb128 .LEHE16-.LEHB16
	.uleb128 .L113-.LFB6220
	.uleb128 0x3
	.uleb128 .LEHB17-.LFB6220
	.uleb128 .LEHE17-.LEHB17
	.uleb128 .L114-.LFB6220
	.uleb128 0x3
	.uleb128 .LEHB18-.LFB6220
	.uleb128 .LEHE18-.LEHB18
	.uleb128 0
	.uleb128 0
	.uleb128 .LEHB19-.LFB6220
	.uleb128 .LEHE19-.LEHB19
	.uleb128 .L115-.LFB6220
	.uleb128 0
	.uleb128 .LEHB20-.LFB6220
	.uleb128 .LEHE20-.LEHB20
	.uleb128 0
	.uleb128 0
.LLSDACSE6220:
	.byte	0x1
	.byte	0
	.byte	0
	.byte	0x7d
	.align 4
	.long	.LDFCM0-.
.LLSDATT6220:
	.text
	.seh_endproc
	.section	.text$_ZNSt7__cxx1112basic_stringIcSt11char_traitsIcESaIcEE12_Alloc_hiderD1Ev,"x"
	.linkonce discard
	.align 2
	.globl	_ZNSt7__cxx1112basic_stringIcSt11char_traitsIcESaIcEE12_Alloc_hiderD1Ev
	.def	_ZNSt7__cxx1112basic_stringIcSt11char_traitsIcESaIcEE12_Alloc_hiderD1Ev;	.scl	2;	.type	32;	.endef
	.seh_proc	_ZNSt7__cxx1112basic_stringIcSt11char_traitsIcESaIcEE12_Alloc_hiderD1Ev
_ZNSt7__cxx1112basic_stringIcSt11char_traitsIcESaIcEE12_Alloc_hiderD1Ev:
.LFB6301:
	pushq	%rbp
	.seh_pushreg	%rbp
	movq	%rsp, %rbp
	.seh_setframe	%rbp, 0
	subq	$32, %rsp
	.seh_stackalloc	32
	.seh_endprologue
	movq	%rcx, 16(%rbp)
	movq	16(%rbp), %rcx
	call	_ZNSaIcED2Ev
	nop
	addq	$32, %rsp
	popq	%rbp
	ret
	.seh_endproc
	.section	.text$_ZStplIcSt11char_traitsIcESaIcEENSt7__cxx1112basic_stringIT_T0_T1_EERKS8_PKS5_,"x"
	.linkonce discard
	.globl	_ZStplIcSt11char_traitsIcESaIcEENSt7__cxx1112basic_stringIT_T0_T1_EERKS8_PKS5_
	.def	_ZStplIcSt11char_traitsIcESaIcEENSt7__cxx1112basic_stringIT_T0_T1_EERKS8_PKS5_;	.scl	2;	.type	32;	.endef
	.seh_proc	_ZStplIcSt11char_traitsIcESaIcEENSt7__cxx1112basic_stringIT_T0_T1_EERKS8_PKS5_
_ZStplIcSt11char_traitsIcESaIcEENSt7__cxx1112basic_stringIT_T0_T1_EERKS8_PKS5_:
.LFB6455:
	pushq	%rbp
	.seh_pushreg	%rbp
	pushq	%rbx
	.seh_pushreg	%rbx
	subq	$40, %rsp
	.seh_stackalloc	40
	leaq	128(%rsp), %rbp
	.seh_setframe	%rbp, 128
	.seh_endprologue
	movq	%rcx, -64(%rbp)
	movq	%rdx, -56(%rbp)
	movq	%r8, -48(%rbp)
	movq	-56(%rbp), %rax
	movq	%rax, %rdx
	movq	-64(%rbp), %rcx
.LEHB21:
	call	_ZNSt7__cxx1112basic_stringIcSt11char_traitsIcESaIcEEC1ERKS4_
.LEHE21:
	movq	-48(%rbp), %rax
	movq	%rax, %rdx
	movq	-64(%rbp), %rcx
.LEHB22:
	call	_ZNSt7__cxx1112basic_stringIcSt11char_traitsIcESaIcEE6appendEPKc
.LEHE22:
	jmp	.L122
.L121:
	movq	%rax, %rbx
	movq	-64(%rbp), %rcx
	call	_ZNSt7__cxx1112basic_stringIcSt11char_traitsIcESaIcEED1Ev
	movq	%rbx, %rax
	movq	%rax, %rcx
.LEHB23:
	call	_Unwind_Resume
.LEHE23:
.L122:
	movq	-64(%rbp), %rax
	addq	$40, %rsp
	popq	%rbx
	popq	%rbp
	ret
	.seh_handler	__gxx_personality_seh0, @unwind, @except
	.seh_handlerdata
.LLSDA6455:
	.byte	0xff
	.byte	0xff
	.byte	0x1
	.uleb128 .LLSDACSE6455-.LLSDACSB6455
.LLSDACSB6455:
	.uleb128 .LEHB21-.LFB6455
	.uleb128 .LEHE21-.LEHB21
	.uleb128 0
	.uleb128 0
	.uleb128 .LEHB22-.LFB6455
	.uleb128 .LEHE22-.LEHB22
	.uleb128 .L121-.LFB6455
	.uleb128 0
	.uleb128 .LEHB23-.LFB6455
	.uleb128 .LEHE23-.LEHB23
	.uleb128 0
	.uleb128 0
.LLSDACSE6455:
	.section	.text$_ZStplIcSt11char_traitsIcESaIcEENSt7__cxx1112basic_stringIT_T0_T1_EERKS8_PKS5_,"x"
	.linkonce discard
	.seh_endproc
	.section	.text$_ZStplIcSt11char_traitsIcESaIcEENSt7__cxx1112basic_stringIT_T0_T1_EEOS8_S9_,"x"
	.linkonce discard
	.globl	_ZStplIcSt11char_traitsIcESaIcEENSt7__cxx1112basic_stringIT_T0_T1_EEOS8_S9_
	.def	_ZStplIcSt11char_traitsIcESaIcEENSt7__cxx1112basic_stringIT_T0_T1_EEOS8_S9_;	.scl	2;	.type	32;	.endef
	.seh_proc	_ZStplIcSt11char_traitsIcESaIcEENSt7__cxx1112basic_stringIT_T0_T1_EEOS8_S9_
_ZStplIcSt11char_traitsIcESaIcEENSt7__cxx1112basic_stringIT_T0_T1_EEOS8_S9_:
.LFB6456:
	pushq	%rbp
	.seh_pushreg	%rbp
	pushq	%rbx
	.seh_pushreg	%rbx
	subq	$56, %rsp
	.seh_stackalloc	56
	leaq	128(%rsp), %rbp
	.seh_setframe	%rbp, 128
	.seh_endprologue
	movq	%rcx, -48(%rbp)
	movq	%rdx, -40(%rbp)
	movq	%r8, -32(%rbp)
	movq	-40(%rbp), %rax
	movq	%rax, %rcx
	call	_ZNKSt7__cxx1112basic_stringIcSt11char_traitsIcESaIcEE4sizeEv
	movq	%rax, %rbx
	movq	-32(%rbp), %rax
	movq	%rax, %rcx
	call	_ZNKSt7__cxx1112basic_stringIcSt11char_traitsIcESaIcEE4sizeEv
	addq	%rbx, %rax
	movq	%rax, -88(%rbp)
	movq	-40(%rbp), %rax
	movq	%rax, %rcx
	call	_ZNKSt7__cxx1112basic_stringIcSt11char_traitsIcESaIcEE8capacityEv
	cmpq	%rax, -88(%rbp)
	jbe	.L124
	movq	-32(%rbp), %rax
	movq	%rax, %rcx
	call	_ZNKSt7__cxx1112basic_stringIcSt11char_traitsIcESaIcEE8capacityEv
	cmpq	%rax, -88(%rbp)
	ja	.L124
	movl	$1, %eax
	jmp	.L125
.L124:
	movl	$0, %eax
.L125:
	movb	%al, -89(%rbp)
	cmpb	$0, -89(%rbp)
	je	.L126
	movq	-40(%rbp), %rdx
	movq	-32(%rbp), %rax
	movq	%rdx, %r8
	movl	$0, %edx
	movq	%rax, %rcx
	call	_ZNSt7__cxx1112basic_stringIcSt11char_traitsIcESaIcEE6insertEyRKS4_
	movq	%rax, %rcx
	call	_ZSt4moveIRNSt7__cxx1112basic_stringIcSt11char_traitsIcESaIcEEEEONSt16remove_referenceIT_E4typeEOS8_
	jmp	.L127
.L126:
	movq	-32(%rbp), %rdx
	movq	-40(%rbp), %rax
	movq	%rax, %rcx
	call	_ZNSt7__cxx1112basic_stringIcSt11char_traitsIcESaIcEE6appendERKS4_
	movq	%rax, %rcx
	call	_ZSt4moveIRNSt7__cxx1112basic_stringIcSt11char_traitsIcESaIcEEEEONSt16remove_referenceIT_E4typeEOS8_
.L127:
	movq	%rax, %rdx
	movq	-48(%rbp), %rcx
	call	_ZNSt7__cxx1112basic_stringIcSt11char_traitsIcESaIcEEC1EOS4_
	movq	-48(%rbp), %rax
	addq	$56, %rsp
	popq	%rbx
	popq	%rbp
	ret
	.seh_endproc
	.section	.text$_ZN5boost16exception_detail12refcount_ptrINS0_20error_info_containerEEC1Ev,"x"
	.linkonce discard
	.align 2
	.globl	_ZN5boost16exception_detail12refcount_ptrINS0_20error_info_containerEEC1Ev
	.def	_ZN5boost16exception_detail12refcount_ptrINS0_20error_info_containerEEC1Ev;	.scl	2;	.type	32;	.endef
	.seh_proc	_ZN5boost16exception_detail12refcount_ptrINS0_20error_info_containerEEC1Ev
_ZN5boost16exception_detail12refcount_ptrINS0_20error_info_containerEEC1Ev:
.LFB6462:
	pushq	%rbp
	.seh_pushreg	%rbp
	movq	%rsp, %rbp
	.seh_setframe	%rbp, 0
	.seh_endprologue
	movq	%rcx, 16(%rbp)
	movq	16(%rbp), %rax
	movq	$0, (%rax)
	nop
	popq	%rbp
	ret
	.seh_endproc
	.section	.text$_ZN5boost16exception_detail12refcount_ptrINS0_20error_info_containerEED1Ev,"x"
	.linkonce discard
	.align 2
	.globl	_ZN5boost16exception_detail12refcount_ptrINS0_20error_info_containerEED1Ev
	.def	_ZN5boost16exception_detail12refcount_ptrINS0_20error_info_containerEED1Ev;	.scl	2;	.type	32;	.endef
	.seh_proc	_ZN5boost16exception_detail12refcount_ptrINS0_20error_info_containerEED1Ev
_ZN5boost16exception_detail12refcount_ptrINS0_20error_info_containerEED1Ev:
.LFB6465:
	pushq	%rbp
	.seh_pushreg	%rbp
	movq	%rsp, %rbp
	.seh_setframe	%rbp, 0
	subq	$32, %rsp
	.seh_stackalloc	32
	.seh_endprologue
	movq	%rcx, 16(%rbp)
	movq	16(%rbp), %rcx
	call	_ZN5boost16exception_detail12refcount_ptrINS0_20error_info_containerEE7releaseEv
	nop
	addq	$32, %rsp
	popq	%rbp
	ret
	.seh_handler	__gxx_personality_seh0, @unwind, @except
	.seh_handlerdata
.LLSDA6465:
	.byte	0xff
	.byte	0xff
	.byte	0x1
	.uleb128 .LLSDACSE6465-.LLSDACSB6465
.LLSDACSB6465:
.LLSDACSE6465:
	.section	.text$_ZN5boost16exception_detail12refcount_ptrINS0_20error_info_containerEED1Ev,"x"
	.linkonce discard
	.seh_endproc
	.section	.text$_ZNK5boost16exception_detail12refcount_ptrINS0_20error_info_containerEE3getEv,"x"
	.linkonce discard
	.align 2
	.globl	_ZNK5boost16exception_detail12refcount_ptrINS0_20error_info_containerEE3getEv
	.def	_ZNK5boost16exception_detail12refcount_ptrINS0_20error_info_containerEE3getEv;	.scl	2;	.type	32;	.endef
	.seh_proc	_ZNK5boost16exception_detail12refcount_ptrINS0_20error_info_containerEE3getEv
_ZNK5boost16exception_detail12refcount_ptrINS0_20error_info_containerEE3getEv:
.LFB6466:
	pushq	%rbp
	.seh_pushreg	%rbp
	movq	%rsp, %rbp
	.seh_setframe	%rbp, 0
	.seh_endprologue
	movq	%rcx, 16(%rbp)
	movq	16(%rbp), %rax
	movq	(%rax), %rax
	popq	%rbp
	ret
	.seh_endproc
	.section	.text$_ZN5boost16exception_detail12refcount_ptrINS0_20error_info_containerEEaSERKS3_,"x"
	.linkonce discard
	.align 2
	.globl	_ZN5boost16exception_detail12refcount_ptrINS0_20error_info_containerEEaSERKS3_
	.def	_ZN5boost16exception_detail12refcount_ptrINS0_20error_info_containerEEaSERKS3_;	.scl	2;	.type	32;	.endef
	.seh_proc	_ZN5boost16exception_detail12refcount_ptrINS0_20error_info_containerEEaSERKS3_
_ZN5boost16exception_detail12refcount_ptrINS0_20error_info_containerEEaSERKS3_:
.LFB6467:
	pushq	%rbp
	.seh_pushreg	%rbp
	movq	%rsp, %rbp
	.seh_setframe	%rbp, 0
	subq	$32, %rsp
	.seh_stackalloc	32
	.seh_endprologue
	movq	%rcx, 16(%rbp)
	movq	%rdx, 24(%rbp)
	movq	24(%rbp), %rax
	movq	(%rax), %rax
	movq	%rax, %rdx
	movq	16(%rbp), %rcx
	call	_ZN5boost16exception_detail12refcount_ptrINS0_20error_info_containerEE5adoptEPS2_
	movq	16(%rbp), %rax
	addq	$32, %rsp
	popq	%rbp
	ret
	.seh_endproc
	.section	.text$_ZN5boost16exception_detail10clone_baseC2ERKS1_,"x"
	.linkonce discard
	.align 2
	.globl	_ZN5boost16exception_detail10clone_baseC2ERKS1_
	.def	_ZN5boost16exception_detail10clone_baseC2ERKS1_;	.scl	2;	.type	32;	.endef
	.seh_proc	_ZN5boost16exception_detail10clone_baseC2ERKS1_
_ZN5boost16exception_detail10clone_baseC2ERKS1_:
.LFB6476:
	pushq	%rbp
	.seh_pushreg	%rbp
	movq	%rsp, %rbp
	.seh_setframe	%rbp, 0
	.seh_endprologue
	movq	%rcx, 16(%rbp)
	movq	%rdx, 24(%rbp)
	leaq	16+_ZTVN5boost16exception_detail10clone_baseE(%rip), %rdx
	movq	16(%rbp), %rax
	movq	%rdx, (%rax)
	nop
	popq	%rbp
	ret
	.seh_endproc
	.section	.text$_ZN5boost9exceptionC2ERKS0_,"x"
	.linkonce discard
	.align 2
	.globl	_ZN5boost9exceptionC2ERKS0_
	.def	_ZN5boost9exceptionC2ERKS0_;	.scl	2;	.type	32;	.endef
	.seh_proc	_ZN5boost9exceptionC2ERKS0_
_ZN5boost9exceptionC2ERKS0_:
.LFB6481:
	pushq	%rbp
	.seh_pushreg	%rbp
	movq	%rsp, %rbp
	.seh_setframe	%rbp, 0
	subq	$32, %rsp
	.seh_stackalloc	32
	.seh_endprologue
	movq	%rcx, 16(%rbp)
	movq	%rdx, 24(%rbp)
	leaq	16+_ZTVN5boost9exceptionE(%rip), %rdx
	movq	16(%rbp), %rax
	movq	%rdx, (%rax)
	movq	16(%rbp), %rax
	addq	$8, %rax
	movq	24(%rbp), %rdx
	addq	$8, %rdx
	movq	%rax, %rcx
	call	_ZN5boost16exception_detail12refcount_ptrINS0_20error_info_containerEEC1ERKS3_
	movq	24(%rbp), %rax
	movq	16(%rax), %rdx
	movq	16(%rbp), %rax
	movq	%rdx, 16(%rax)
	movq	24(%rbp), %rax
	movq	24(%rax), %rdx
	movq	16(%rbp), %rax
	movq	%rdx, 24(%rax)
	movq	24(%rbp), %rax
	movl	32(%rax), %edx
	movq	16(%rbp), %rax
	movl	%edx, 32(%rax)
	nop
	addq	$32, %rsp
	popq	%rbp
	ret
	.seh_endproc
	.section	.text$_ZN5boost13property_tree11basic_ptreeINSt7__cxx1112basic_stringIcSt11char_traitsIcESaIcEEES7_St4lessIS7_EEC1Ev,"x"
	.linkonce discard
	.align 2
	.globl	_ZN5boost13property_tree11basic_ptreeINSt7__cxx1112basic_stringIcSt11char_traitsIcESaIcEEES7_St4lessIS7_EEC1Ev
	.def	_ZN5boost13property_tree11basic_ptreeINSt7__cxx1112basic_stringIcSt11char_traitsIcESaIcEEES7_St4lessIS7_EEC1Ev;	.scl	2;	.type	32;	.endef
	.seh_proc	_ZN5boost13property_tree11basic_ptreeINSt7__cxx1112basic_stringIcSt11char_traitsIcESaIcEEES7_St4lessIS7_EEC1Ev
_ZN5boost13property_tree11basic_ptreeINSt7__cxx1112basic_stringIcSt11char_traitsIcESaIcEEES7_St4lessIS7_EEC1Ev:
.LFB6537:
	pushq	%rbp
	.seh_pushreg	%rbp
	pushq	%rsi
	.seh_pushreg	%rsi
	pushq	%rbx
	.seh_pushreg	%rbx
	movq	%rsp, %rbp
	.seh_setframe	%rbp, 0
	subq	$32, %rsp
	.seh_stackalloc	32
	.seh_endprologue
	movq	%rcx, 32(%rbp)
	movq	32(%rbp), %rax
	movq	%rax, %rcx
	call	_ZNSt7__cxx1112basic_stringIcSt11char_traitsIcESaIcEEC1Ev
	movl	$32, %ecx
.LEHB24:
	call	_Znwy
.LEHE24:
	movq	%rax, %rbx
	movq	%rbx, %rcx
.LEHB25:
	call	_ZN5boost11multi_index21multi_index_containerISt4pairIKNSt7__cxx1112basic_stringIcSt11char_traitsIcESaIcEEENS_13property_tree11basic_ptreeIS8_S8_St4lessIS8_EEEENS0_10indexed_byINS0_9sequencedINS0_3tagIN4mpl_2naESK_SK_SK_SK_SK_SK_SK_SK_SK_SK_SK_SK_SK_SK_SK_SK_SK_SK_SK_EEEENS0_18ordered_non_uniqueINSI_INSE_4subs7by_nameESK_SK_SK_SK_SK_SK_SK_SK_SK_SK_SK_SK_SK_SK_SK_SK_SK_SK_SK_EENS0_6memberISF_S9_XadL_ZNSF_5firstEEEEESD_EESK_SK_SK_SK_SK_SK_SK_SK_SK_SK_SK_SK_SK_SK_SK_SK_SK_SK_EESaISF_EEC1Ev
.LEHE25:
	movq	32(%rbp), %rax
	movq	%rbx, 32(%rax)
	jmp	.L142
.L141:
	movq	%rax, %rsi
	movl	$32, %edx
	movq	%rbx, %rcx
	call	_ZdlPvy
	movq	%rsi, %rbx
	jmp	.L139
.L140:
	movq	%rax, %rbx
.L139:
	movq	32(%rbp), %rax
	movq	%rax, %rcx
	call	_ZNSt7__cxx1112basic_stringIcSt11char_traitsIcESaIcEED1Ev
	movq	%rbx, %rax
	movq	%rax, %rcx
.LEHB26:
	call	_Unwind_Resume
	nop
.LEHE26:
.L142:
	addq	$32, %rsp
	popq	%rbx
	popq	%rsi
	popq	%rbp
	ret
	.seh_handler	__gxx_personality_seh0, @unwind, @except
	.seh_handlerdata
.LLSDA6537:
	.byte	0xff
	.byte	0xff
	.byte	0x1
	.uleb128 .LLSDACSE6537-.LLSDACSB6537
.LLSDACSB6537:
	.uleb128 .LEHB24-.LFB6537
	.uleb128 .LEHE24-.LEHB24
	.uleb128 .L140-.LFB6537
	.uleb128 0
	.uleb128 .LEHB25-.LFB6537
	.uleb128 .LEHE25-.LEHB25
	.uleb128 .L141-.LFB6537
	.uleb128 0
	.uleb128 .LEHB26-.LFB6537
	.uleb128 .LEHE26-.LEHB26
	.uleb128 0
	.uleb128 0
.LLSDACSE6537:
	.section	.text$_ZN5boost13property_tree11basic_ptreeINSt7__cxx1112basic_stringIcSt11char_traitsIcESaIcEEES7_St4lessIS7_EEC1Ev,"x"
	.linkonce discard
	.seh_endproc
	.section	.text$_ZN5boost13property_tree11basic_ptreeINSt7__cxx1112basic_stringIcSt11char_traitsIcESaIcEEES7_St4lessIS7_EED1Ev,"x"
	.linkonce discard
	.align 2
	.globl	_ZN5boost13property_tree11basic_ptreeINSt7__cxx1112basic_stringIcSt11char_traitsIcESaIcEEES7_St4lessIS7_EED1Ev
	.def	_ZN5boost13property_tree11basic_ptreeINSt7__cxx1112basic_stringIcSt11char_traitsIcESaIcEEES7_St4lessIS7_EED1Ev;	.scl	2;	.type	32;	.endef
	.seh_proc	_ZN5boost13property_tree11basic_ptreeINSt7__cxx1112basic_stringIcSt11char_traitsIcESaIcEEES7_St4lessIS7_EED1Ev
_ZN5boost13property_tree11basic_ptreeINSt7__cxx1112basic_stringIcSt11char_traitsIcESaIcEEES7_St4lessIS7_EED1Ev:
.LFB6540:
	pushq	%rbp
	.seh_pushreg	%rbp
	pushq	%rbx
	.seh_pushreg	%rbx
	subq	$40, %rsp
	.seh_stackalloc	40
	leaq	128(%rsp), %rbp
	.seh_setframe	%rbp, 128
	.seh_endprologue
	movq	%rcx, -64(%rbp)
	movq	-64(%rbp), %rcx
	call	_ZN5boost13property_tree11basic_ptreeINSt7__cxx1112basic_stringIcSt11char_traitsIcESaIcEEES7_St4lessIS7_EE4subs2chEPSA_
	movq	%rax, %rbx
	testq	%rbx, %rbx
	je	.L144
	movq	%rbx, %rcx
	call	_ZN5boost11multi_index21multi_index_containerISt4pairIKNSt7__cxx1112basic_stringIcSt11char_traitsIcESaIcEEENS_13property_tree11basic_ptreeIS8_S8_St4lessIS8_EEEENS0_10indexed_byINS0_9sequencedINS0_3tagIN4mpl_2naESK_SK_SK_SK_SK_SK_SK_SK_SK_SK_SK_SK_SK_SK_SK_SK_SK_SK_SK_EEEENS0_18ordered_non_uniqueINSI_INSE_4subs7by_nameESK_SK_SK_SK_SK_SK_SK_SK_SK_SK_SK_SK_SK_SK_SK_SK_SK_SK_SK_EENS0_6memberISF_S9_XadL_ZNSF_5firstEEEEESD_EESK_SK_SK_SK_SK_SK_SK_SK_SK_SK_SK_SK_SK_SK_SK_SK_SK_SK_EESaISF_EED1Ev
	movl	$32, %edx
	movq	%rbx, %rcx
	call	_ZdlPvy
.L144:
	movq	-64(%rbp), %rax
	movq	%rax, %rcx
	call	_ZNSt7__cxx1112basic_stringIcSt11char_traitsIcESaIcEED1Ev
	nop
	addq	$40, %rsp
	popq	%rbx
	popq	%rbp
	ret
	.seh_endproc
	.section	.text$_ZN5boost13property_tree10xml_parser16xml_parser_errorD2Ev,"x"
	.linkonce discard
	.align 2
	.globl	_ZN5boost13property_tree10xml_parser16xml_parser_errorD2Ev
	.def	_ZN5boost13property_tree10xml_parser16xml_parser_errorD2Ev;	.scl	2;	.type	32;	.endef
	.seh_proc	_ZN5boost13property_tree10xml_parser16xml_parser_errorD2Ev
_ZN5boost13property_tree10xml_parser16xml_parser_errorD2Ev:
.LFB6543:
	pushq	%rbp
	.seh_pushreg	%rbp
	movq	%rsp, %rbp
	.seh_setframe	%rbp, 0
	subq	$32, %rsp
	.seh_stackalloc	32
	.seh_endprologue
	movq	%rcx, 16(%rbp)
	leaq	16+_ZTVN5boost13property_tree10xml_parser16xml_parser_errorE(%rip), %rdx
	movq	16(%rbp), %rax
	movq	%rdx, (%rax)
	movq	16(%rbp), %rax
	movq	%rax, %rcx
	call	_ZN5boost13property_tree17file_parser_errorD2Ev
	nop
	addq	$32, %rsp
	popq	%rbp
	ret
	.seh_endproc
	.section	.text$_ZN5boost13property_tree10xml_parser16xml_parser_errorD1Ev,"x"
	.linkonce discard
	.align 2
	.globl	_ZN5boost13property_tree10xml_parser16xml_parser_errorD1Ev
	.def	_ZN5boost13property_tree10xml_parser16xml_parser_errorD1Ev;	.scl	2;	.type	32;	.endef
	.seh_proc	_ZN5boost13property_tree10xml_parser16xml_parser_errorD1Ev
_ZN5boost13property_tree10xml_parser16xml_parser_errorD1Ev:
.LFB6544:
	pushq	%rbp
	.seh_pushreg	%rbp
	movq	%rsp, %rbp
	.seh_setframe	%rbp, 0
	subq	$32, %rsp
	.seh_stackalloc	32
	.seh_endprologue
	movq	%rcx, 16(%rbp)
	leaq	16+_ZTVN5boost13property_tree10xml_parser16xml_parser_errorE(%rip), %rdx
	movq	16(%rbp), %rax
	movq	%rdx, (%rax)
	movq	16(%rbp), %rax
	movq	%rax, %rcx
	call	_ZN5boost13property_tree17file_parser_errorD2Ev
	nop
	addq	$32, %rsp
	popq	%rbp
	ret
	.seh_endproc
	.section	.text$_ZN5boost13property_tree10xml_parser16xml_parser_errorD0Ev,"x"
	.linkonce discard
	.align 2
	.globl	_ZN5boost13property_tree10xml_parser16xml_parser_errorD0Ev
	.def	_ZN5boost13property_tree10xml_parser16xml_parser_errorD0Ev;	.scl	2;	.type	32;	.endef
	.seh_proc	_ZN5boost13property_tree10xml_parser16xml_parser_errorD0Ev
_ZN5boost13property_tree10xml_parser16xml_parser_errorD0Ev:
.LFB6545:
	pushq	%rbp
	.seh_pushreg	%rbp
	movq	%rsp, %rbp
	.seh_setframe	%rbp, 0
	subq	$32, %rsp
	.seh_stackalloc	32
	.seh_endprologue
	movq	%rcx, 16(%rbp)
	movq	16(%rbp), %rcx
	call	_ZN5boost13property_tree10xml_parser16xml_parser_errorD1Ev
	movl	$88, %edx
	movq	16(%rbp), %rcx
	call	_ZdlPvy
	nop
	addq	$32, %rsp
	popq	%rbp
	ret
	.seh_endproc
	.section .rdata,"dr"
	.align 8
.LC5:
	.ascii "C:/msys64/mingw64/include/boost/property_tree/xml_parser.hpp\0"
.LC6:
	.ascii "validate_flags(flags)\0"
.LC7:
	.ascii "cannot open file\0"
	.align 8
.LC8:
	.ascii "void boost::property_tree::xml_parser::read_xml(const string&, Ptree&, int, const std::locale&) [with Ptree = boost::property_tree::basic_ptree<std::__cxx11::basic_string<char>, std::__cxx11::basic_string<char> >; std::string = std::__cxx11::basic_string<char>]\0"
	.section	.text$_ZN5boost13property_tree10xml_parser8read_xmlINS0_11basic_ptreeINSt7__cxx1112basic_stringIcSt11char_traitsIcESaIcEEES9_St4lessIS9_EEEEEvRKS9_RT_iRKSt6locale,"x"
	.linkonce discard
	.globl	_ZN5boost13property_tree10xml_parser8read_xmlINS0_11basic_ptreeINSt7__cxx1112basic_stringIcSt11char_traitsIcESaIcEEES9_St4lessIS9_EEEEEvRKS9_RT_iRKSt6locale
	.def	_ZN5boost13property_tree10xml_parser8read_xmlINS0_11basic_ptreeINSt7__cxx1112basic_stringIcSt11char_traitsIcESaIcEEES9_St4lessIS9_EEEEEvRKS9_RT_iRKSt6locale;	.scl	2;	.type	32;	.endef
	.seh_proc	_ZN5boost13property_tree10xml_parser8read_xmlINS0_11basic_ptreeINSt7__cxx1112basic_stringIcSt11char_traitsIcESaIcEEES9_St4lessIS9_EEEEEvRKS9_RT_iRKSt6locale
_ZN5boost13property_tree10xml_parser8read_xmlINS0_11basic_ptreeINSt7__cxx1112basic_stringIcSt11char_traitsIcESaIcEEES9_St4lessIS9_EEEEEvRKS9_RT_iRKSt6locale:
.LFB6541:
	pushq	%rbp
	.seh_pushreg	%rbp
	pushq	%rbx
	.seh_pushreg	%rbx
	subq	$664, %rsp
	.seh_stackalloc	664
	leaq	128(%rsp), %rbp
	.seh_setframe	%rbp, 128
	.seh_endprologue
	movq	%rcx, 560(%rbp)
	movq	%rdx, 568(%rbp)
	movl	%r8d, 576(%rbp)
	movq	%r9, 584(%rbp)
	movl	576(%rbp), %eax
	movl	%eax, %ecx
	call	_ZN5boost13property_tree10xml_parser14validate_flagsEi
	testb	%al, %al
	jne	.L150
	movl	$78, %r8d
	leaq	.LC5(%rip), %rdx
	leaq	.LC6(%rip), %rcx
	movq	__imp__assert(%rip), %rax
.LEHB27:
	call	*%rax
.L150:
	movq	560(%rbp), %rcx
	call	_ZNKSt7__cxx1112basic_stringIcSt11char_traitsIcESaIcEE5c_strEv
	movq	%rax, %rdx
	leaq	-96(%rbp), %rax
	movl	$8, %r8d
	movq	%rax, %rcx
	call	_ZNSt14basic_ifstreamIcSt11char_traitsIcEEC1EPKcSt13_Ios_Openmode
.LEHE27:
	leaq	-96(%rbp), %rax
	addq	$208, %rax
	movq	%rax, %rcx
.LEHB28:
	call	_ZNKSt9basic_iosIcSt11char_traitsIcEEntEv
.LEHE28:
	testb	%al, %al
	je	.L151
	leaq	519(%rbp), %rax
	movq	%rax, %rcx
	call	_ZNSaIcEC1Ev
	leaq	519(%rbp), %rdx
	leaq	480(%rbp), %rax
	movq	%rdx, %r8
	leaq	.LC7(%rip), %rdx
	movq	%rax, %rcx
.LEHB29:
	call	_ZNSt7__cxx1112basic_stringIcSt11char_traitsIcESaIcEEC1EPKcRKS3_
.LEHE29:
	leaq	480(%rbp), %rdx
	leaq	384(%rbp), %rax
	movl	$0, %r9d
	movq	560(%rbp), %r8
	movq	%rax, %rcx
.LEHB30:
	call	_ZN5boost13property_tree10xml_parser16xml_parser_errorC1ERKNSt7__cxx1112basic_stringIcSt11char_traitsIcESaIcEEESA_m
.LEHE30:
	leaq	384(%rbp), %rax
	movl	$82, %r9d
	leaq	.LC5(%rip), %r8
	leaq	.LC8(%rip), %rdx
	movq	%rax, %rcx
.LEHB31:
	call	_ZN5boost16exception_detail16throw_exception_INS_13property_tree10xml_parser16xml_parser_errorEEEvRKT_PKcS9_i
.LEHE31:
.L151:
	leaq	520(%rbp), %rax
	movq	584(%rbp), %rcx
	leaq	-96(%rbp), %rdx
	addq	$208, %rdx
	movq	%rcx, %r8
	movq	%rax, %rcx
.LEHB32:
	call	_ZNSt9basic_iosIcSt11char_traitsIcEE5imbueERKSt6locale
	leaq	520(%rbp), %rax
	movq	%rax, %rcx
	call	_ZNSt6localeD1Ev
	movl	576(%rbp), %ecx
	movq	568(%rbp), %rdx
	leaq	-96(%rbp), %rax
	movq	560(%rbp), %r9
	movl	%ecx, %r8d
	movq	%rax, %rcx
	call	_ZN5boost13property_tree10xml_parser17read_xml_internalINS0_11basic_ptreeINSt7__cxx1112basic_stringIcSt11char_traitsIcESaIcEEES9_St4lessIS9_EEEEEvRSt13basic_istreamINT_8key_type10value_typeES6_ISG_EERSE_iRKS9_
.LEHE32:
	leaq	-96(%rbp), %rax
	movq	%rax, %rcx
	call	_ZNSt14basic_ifstreamIcSt11char_traitsIcEED1Ev
	jmp	.L160
.L159:
	movq	%rax, %rbx
	leaq	384(%rbp), %rax
	movq	%rax, %rcx
	call	_ZN5boost13property_tree10xml_parser16xml_parser_errorD1Ev
	jmp	.L153
.L158:
	movq	%rax, %rbx
.L153:
	leaq	480(%rbp), %rax
	movq	%rax, %rcx
	call	_ZNSt7__cxx1112basic_stringIcSt11char_traitsIcESaIcEED1Ev
	jmp	.L154
.L157:
	movq	%rax, %rbx
.L154:
	leaq	519(%rbp), %rax
	movq	%rax, %rcx
	call	_ZNSaIcED1Ev
	jmp	.L155
.L156:
	movq	%rax, %rbx
.L155:
	leaq	-96(%rbp), %rax
	movq	%rax, %rcx
	call	_ZNSt14basic_ifstreamIcSt11char_traitsIcEED1Ev
	movq	%rbx, %rax
	movq	%rax, %rcx
.LEHB33:
	call	_Unwind_Resume
	nop
.LEHE33:
.L160:
	addq	$664, %rsp
	popq	%rbx
	popq	%rbp
	ret
	.seh_handler	__gxx_personality_seh0, @unwind, @except
	.seh_handlerdata
.LLSDA6541:
	.byte	0xff
	.byte	0xff
	.byte	0x1
	.uleb128 .LLSDACSE6541-.LLSDACSB6541
.LLSDACSB6541:
	.uleb128 .LEHB27-.LFB6541
	.uleb128 .LEHE27-.LEHB27
	.uleb128 0
	.uleb128 0
	.uleb128 .LEHB28-.LFB6541
	.uleb128 .LEHE28-.LEHB28
	.uleb128 .L156-.LFB6541
	.uleb128 0
	.uleb128 .LEHB29-.LFB6541
	.uleb128 .LEHE29-.LEHB29
	.uleb128 .L157-.LFB6541
	.uleb128 0
	.uleb128 .LEHB30-.LFB6541
	.uleb128 .LEHE30-.LEHB30
	.uleb128 .L158-.LFB6541
	.uleb128 0
	.uleb128 .LEHB31-.LFB6541
	.uleb128 .LEHE31-.LEHB31
	.uleb128 .L159-.LFB6541
	.uleb128 0
	.uleb128 .LEHB32-.LFB6541
	.uleb128 .LEHE32-.LEHB32
	.uleb128 .L156-.LFB6541
	.uleb128 0
	.uleb128 .LEHB33-.LFB6541
	.uleb128 .LEHE33-.LEHB33
	.uleb128 0
	.uleb128 0
.LLSDACSE6541:
	.section	.text$_ZN5boost13property_tree10xml_parser8read_xmlINS0_11basic_ptreeINSt7__cxx1112basic_stringIcSt11char_traitsIcESaIcEEES9_St4lessIS9_EEEEEvRKS9_RT_iRKSt6locale,"x"
	.linkonce discard
	.seh_endproc
	.section	.text$_ZN5boost13property_tree11string_pathINSt7__cxx1112basic_stringIcSt11char_traitsIcESaIcEEENS0_13id_translatorIS7_EEEC1EPKccS9_,"x"
	.linkonce discard
	.align 2
	.globl	_ZN5boost13property_tree11string_pathINSt7__cxx1112basic_stringIcSt11char_traitsIcESaIcEEENS0_13id_translatorIS7_EEEC1EPKccS9_
	.def	_ZN5boost13property_tree11string_pathINSt7__cxx1112basic_stringIcSt11char_traitsIcESaIcEEENS0_13id_translatorIS7_EEEC1EPKccS9_;	.scl	2;	.type	32;	.endef
	.seh_proc	_ZN5boost13property_tree11string_pathINSt7__cxx1112basic_stringIcSt11char_traitsIcESaIcEEENS0_13id_translatorIS7_EEEC1EPKccS9_
_ZN5boost13property_tree11string_pathINSt7__cxx1112basic_stringIcSt11char_traitsIcESaIcEEENS0_13id_translatorIS7_EEEC1EPKccS9_:
.LFB6548:
	pushq	%rbp
	.seh_pushreg	%rbp
	pushq	%rbx
	.seh_pushreg	%rbx
	subq	$56, %rsp
	.seh_stackalloc	56
	leaq	128(%rsp), %rbp
	.seh_setframe	%rbp, 128
	.seh_endprologue
	movq	%rcx, -48(%rbp)
	movq	%rdx, -40(%rbp)
	movl	%r8d, %eax
	movb	%al, -32(%rbp)
	movq	-48(%rbp), %rbx
	leaq	-81(%rbp), %rax
	movq	%rax, %rcx
	call	_ZNSaIcEC1Ev
	leaq	-81(%rbp), %rdx
	movq	-40(%rbp), %rax
	movq	%rdx, %r8
	movq	%rax, %rdx
	movq	%rbx, %rcx
.LEHB34:
	call	_ZNSt7__cxx1112basic_stringIcSt11char_traitsIcESaIcEEC1EPKcRKS3_
.LEHE34:
	leaq	-81(%rbp), %rax
	movq	%rax, %rcx
	call	_ZNSaIcED1Ev
	movq	-48(%rbp), %rax
	movzbl	-32(%rbp), %edx
	movb	%dl, 32(%rax)
	movq	-48(%rbp), %rax
	movq	-48(%rbp), %rbx
	movq	%rax, %rcx
	call	_ZNSt7__cxx1112basic_stringIcSt11char_traitsIcESaIcEE5beginEv
	movq	%rax, 40(%rbx)
	jmp	.L164
.L163:
	movq	%rax, %rbx
	leaq	-81(%rbp), %rax
	movq	%rax, %rcx
	call	_ZNSaIcED1Ev
	movq	%rbx, %rax
	movq	%rax, %rcx
.LEHB35:
	call	_Unwind_Resume
	nop
.LEHE35:
.L164:
	addq	$56, %rsp
	popq	%rbx
	popq	%rbp
	ret
	.seh_handler	__gxx_personality_seh0, @unwind, @except
	.seh_handlerdata
.LLSDA6548:
	.byte	0xff
	.byte	0xff
	.byte	0x1
	.uleb128 .LLSDACSE6548-.LLSDACSB6548
.LLSDACSB6548:
	.uleb128 .LEHB34-.LFB6548
	.uleb128 .LEHE34-.LEHB34
	.uleb128 .L163-.LFB6548
	.uleb128 0
	.uleb128 .LEHB35-.LFB6548
	.uleb128 .LEHE35-.LEHB35
	.uleb128 0
	.uleb128 0
.LLSDACSE6548:
	.section	.text$_ZN5boost13property_tree11string_pathINSt7__cxx1112basic_stringIcSt11char_traitsIcESaIcEEENS0_13id_translatorIS7_EEEC1EPKccS9_,"x"
	.linkonce discard
	.seh_endproc
	.section	.text$_ZNK5boost13property_tree11basic_ptreeINSt7__cxx1112basic_stringIcSt11char_traitsIcESaIcEEES7_St4lessIS7_EE3getIS7_EET_RKNS0_11string_pathIS7_NS0_13id_translatorIS7_EEEE,"x"
	.linkonce discard
	.align 2
	.globl	_ZNK5boost13property_tree11basic_ptreeINSt7__cxx1112basic_stringIcSt11char_traitsIcESaIcEEES7_St4lessIS7_EE3getIS7_EET_RKNS0_11string_pathIS7_NS0_13id_translatorIS7_EEEE
	.def	_ZNK5boost13property_tree11basic_ptreeINSt7__cxx1112basic_stringIcSt11char_traitsIcESaIcEEES7_St4lessIS7_EE3getIS7_EET_RKNS0_11string_pathIS7_NS0_13id_translatorIS7_EEEE;	.scl	2;	.type	32;	.endef
	.seh_proc	_ZNK5boost13property_tree11basic_ptreeINSt7__cxx1112basic_stringIcSt11char_traitsIcESaIcEEES7_St4lessIS7_EE3getIS7_EET_RKNS0_11string_pathIS7_NS0_13id_translatorIS7_EEEE
_ZNK5boost13property_tree11basic_ptreeINSt7__cxx1112basic_stringIcSt11char_traitsIcESaIcEEES7_St4lessIS7_EE3getIS7_EET_RKNS0_11string_pathIS7_NS0_13id_translatorIS7_EEEE:
.LFB6549:
	pushq	%rbp
	.seh_pushreg	%rbp
	movq	%rsp, %rbp
	.seh_setframe	%rbp, 0
	subq	$32, %rsp
	.seh_stackalloc	32
	.seh_endprologue
	movq	%rcx, 16(%rbp)
	movq	%rdx, 24(%rbp)
	movq	%r8, 32(%rbp)
	movq	32(%rbp), %rdx
	movq	24(%rbp), %rax
	movq	%rax, %rcx
	call	_ZNK5boost13property_tree11basic_ptreeINSt7__cxx1112basic_stringIcSt11char_traitsIcESaIcEEES7_St4lessIS7_EE9get_childERKNS0_11string_pathIS7_NS0_13id_translatorIS7_EEEE
	movq	%rax, %rdx
	movq	16(%rbp), %rax
	movq	%rax, %rcx
	call	_ZNK5boost13property_tree11basic_ptreeINSt7__cxx1112basic_stringIcSt11char_traitsIcESaIcEEES7_St4lessIS7_EE9get_valueIS7_EET_v
	movq	16(%rbp), %rax
	addq	$32, %rsp
	popq	%rbp
	ret
	.seh_endproc
	.section	.text$_ZSt4moveIRNSt7__cxx1112basic_stringIcSt11char_traitsIcESaIcEEEEONSt16remove_referenceIT_E4typeEOS8_,"x"
	.linkonce discard
	.globl	_ZSt4moveIRNSt7__cxx1112basic_stringIcSt11char_traitsIcESaIcEEEEONSt16remove_referenceIT_E4typeEOS8_
	.def	_ZSt4moveIRNSt7__cxx1112basic_stringIcSt11char_traitsIcESaIcEEEEONSt16remove_referenceIT_E4typeEOS8_;	.scl	2;	.type	32;	.endef
	.seh_proc	_ZSt4moveIRNSt7__cxx1112basic_stringIcSt11char_traitsIcESaIcEEEEONSt16remove_referenceIT_E4typeEOS8_
_ZSt4moveIRNSt7__cxx1112basic_stringIcSt11char_traitsIcESaIcEEEEONSt16remove_referenceIT_E4typeEOS8_:
.LFB6654:
	pushq	%rbp
	.seh_pushreg	%rbp
	movq	%rsp, %rbp
	.seh_setframe	%rbp, 0
	.seh_endprologue
	movq	%rcx, 16(%rbp)
	movq	16(%rbp), %rax
	popq	%rbp
	ret
	.seh_endproc
	.section	.text$_ZN5boost16exception_detail12refcount_ptrINS0_20error_info_containerEE7releaseEv,"x"
	.linkonce discard
	.align 2
	.globl	_ZN5boost16exception_detail12refcount_ptrINS0_20error_info_containerEE7releaseEv
	.def	_ZN5boost16exception_detail12refcount_ptrINS0_20error_info_containerEE7releaseEv;	.scl	2;	.type	32;	.endef
	.seh_proc	_ZN5boost16exception_detail12refcount_ptrINS0_20error_info_containerEE7releaseEv
_ZN5boost16exception_detail12refcount_ptrINS0_20error_info_containerEE7releaseEv:
.LFB6657:
	pushq	%rbp
	.seh_pushreg	%rbp
	movq	%rsp, %rbp
	.seh_setframe	%rbp, 0
	subq	$32, %rsp
	.seh_stackalloc	32
	.seh_endprologue
	movq	%rcx, 16(%rbp)
	movq	16(%rbp), %rax
	movq	(%rax), %rax
	testq	%rax, %rax
	je	.L170
	movq	16(%rbp), %rax
	movq	(%rax), %rax
	movq	16(%rbp), %rdx
	movq	(%rdx), %rdx
	movq	(%rdx), %rdx
	addq	$32, %rdx
	movq	(%rdx), %rdx
	movq	%rax, %rcx
	call	*%rdx
	testb	%al, %al
	je	.L170
	movl	$1, %eax
	jmp	.L171
.L170:
	movl	$0, %eax
.L171:
	testb	%al, %al
	je	.L173
	movq	16(%rbp), %rax
	movq	$0, (%rax)
.L173:
	nop
	addq	$32, %rsp
	popq	%rbp
	ret
	.seh_endproc
	.section	.text$_ZN5boost16exception_detail12refcount_ptrINS0_20error_info_containerEE5adoptEPS2_,"x"
	.linkonce discard
	.align 2
	.globl	_ZN5boost16exception_detail12refcount_ptrINS0_20error_info_containerEE5adoptEPS2_
	.def	_ZN5boost16exception_detail12refcount_ptrINS0_20error_info_containerEE5adoptEPS2_;	.scl	2;	.type	32;	.endef
	.seh_proc	_ZN5boost16exception_detail12refcount_ptrINS0_20error_info_containerEE5adoptEPS2_
_ZN5boost16exception_detail12refcount_ptrINS0_20error_info_containerEE5adoptEPS2_:
.LFB6658:
	pushq	%rbp
	.seh_pushreg	%rbp
	movq	%rsp, %rbp
	.seh_setframe	%rbp, 0
	subq	$32, %rsp
	.seh_stackalloc	32
	.seh_endprologue
	movq	%rcx, 16(%rbp)
	movq	%rdx, 24(%rbp)
	movq	16(%rbp), %rcx
	call	_ZN5boost16exception_detail12refcount_ptrINS0_20error_info_containerEE7releaseEv
	movq	16(%rbp), %rax
	movq	24(%rbp), %rdx
	movq	%rdx, (%rax)
	movq	16(%rbp), %rcx
	call	_ZN5boost16exception_detail12refcount_ptrINS0_20error_info_containerEE7add_refEv
	nop
	addq	$32, %rsp
	popq	%rbp
	ret
	.seh_endproc
	.section	.text$_ZN5boost16exception_detail12refcount_ptrINS0_20error_info_containerEEC1ERKS3_,"x"
	.linkonce discard
	.align 2
	.globl	_ZN5boost16exception_detail12refcount_ptrINS0_20error_info_containerEEC1ERKS3_
	.def	_ZN5boost16exception_detail12refcount_ptrINS0_20error_info_containerEEC1ERKS3_;	.scl	2;	.type	32;	.endef
	.seh_proc	_ZN5boost16exception_detail12refcount_ptrINS0_20error_info_containerEEC1ERKS3_
_ZN5boost16exception_detail12refcount_ptrINS0_20error_info_containerEEC1ERKS3_:
.LFB6670:
	pushq	%rbp
	.seh_pushreg	%rbp
	movq	%rsp, %rbp
	.seh_setframe	%rbp, 0
	subq	$32, %rsp
	.seh_stackalloc	32
	.seh_endprologue
	movq	%rcx, 16(%rbp)
	movq	%rdx, 24(%rbp)
	movq	24(%rbp), %rax
	movq	(%rax), %rdx
	movq	16(%rbp), %rax
	movq	%rdx, (%rax)
	movq	16(%rbp), %rcx
	call	_ZN5boost16exception_detail12refcount_ptrINS0_20error_info_containerEE7add_refEv
	nop
	addq	$32, %rsp
	popq	%rbp
	ret
	.seh_endproc
	.section	.text$_ZN5boost16base_from_memberISaINS_11multi_index6detail20sequenced_index_nodeINS2_18ordered_index_nodeINS2_19null_augment_policyENS2_15index_node_baseISt4pairIKNSt7__cxx1112basic_stringIcSt11char_traitsIcESaIcEEENS_13property_tree11basic_ptreeISD_SD_St4lessISD_EEEESaISK_EEEEEEEELi0EED2Ev,"x"
	.linkonce discard
	.align 2
	.globl	_ZN5boost16base_from_memberISaINS_11multi_index6detail20sequenced_index_nodeINS2_18ordered_index_nodeINS2_19null_augment_policyENS2_15index_node_baseISt4pairIKNSt7__cxx1112basic_stringIcSt11char_traitsIcESaIcEEENS_13property_tree11basic_ptreeISD_SD_St4lessISD_EEEESaISK_EEEEEEEELi0EED2Ev
	.def	_ZN5boost16base_from_memberISaINS_11multi_index6detail20sequenced_index_nodeINS2_18ordered_index_nodeINS2_19null_augment_policyENS2_15index_node_baseISt4pairIKNSt7__cxx1112basic_stringIcSt11char_traitsIcESaIcEEENS_13property_tree11basic_ptreeISD_SD_St4lessISD_EEEESaISK_EEEEEEEELi0EED2Ev;	.scl	2;	.type	32;	.endef
	.seh_proc	_ZN5boost16base_from_memberISaINS_11multi_index6detail20sequenced_index_nodeINS2_18ordered_index_nodeINS2_19null_augment_policyENS2_15index_node_baseISt4pairIKNSt7__cxx1112basic_stringIcSt11char_traitsIcESaIcEEENS_13property_tree11basic_ptreeISD_SD_St4lessISD_EEEESaISK_EEEEEEEELi0EED2Ev
_ZN5boost16base_from_memberISaINS_11multi_index6detail20sequenced_index_nodeINS2_18ordered_index_nodeINS2_19null_augment_policyENS2_15index_node_baseISt4pairIKNSt7__cxx1112basic_stringIcSt11char_traitsIcESaIcEEENS_13property_tree11basic_ptreeISD_SD_St4lessISD_EEEESaISK_EEEEEEEELi0EED2Ev:
.LFB6712:
	pushq	%rbp
	.seh_pushreg	%rbp
	movq	%rsp, %rbp
	.seh_setframe	%rbp, 0
	subq	$32, %rsp
	.seh_stackalloc	32
	.seh_endprologue
	movq	%rcx, 16(%rbp)
	movq	16(%rbp), %rax
	movq	%rax, %rcx
	call	_ZNSaIN5boost11multi_index6detail20sequenced_index_nodeINS1_18ordered_index_nodeINS1_19null_augment_policyENS1_15index_node_baseISt4pairIKNSt7__cxx1112basic_stringIcSt11char_traitsIcESaIcEEENS_13property_tree11basic_ptreeISC_SC_St4lessISC_EEEESaISJ_EEEEEEEED1Ev
	nop
	addq	$32, %rsp
	popq	%rbp
	ret
	.seh_endproc
	.section	.text$_ZN5boost11multi_index21multi_index_containerISt4pairIKNSt7__cxx1112basic_stringIcSt11char_traitsIcESaIcEEENS_13property_tree11basic_ptreeIS8_S8_St4lessIS8_EEEENS0_10indexed_byINS0_9sequencedINS0_3tagIN4mpl_2naESK_SK_SK_SK_SK_SK_SK_SK_SK_SK_SK_SK_SK_SK_SK_SK_SK_SK_SK_EEEENS0_18ordered_non_uniqueINSI_INSE_4subs7by_nameESK_SK_SK_SK_SK_SK_SK_SK_SK_SK_SK_SK_SK_SK_SK_SK_SK_SK_SK_EENS0_6memberISF_S9_XadL_ZNSF_5firstEEEEESD_EESK_SK_SK_SK_SK_SK_SK_SK_SK_SK_SK_SK_SK_SK_SK_SK_SK_SK_EESaISF_EEC1Ev,"x"
	.linkonce discard
	.align 2
	.globl	_ZN5boost11multi_index21multi_index_containerISt4pairIKNSt7__cxx1112basic_stringIcSt11char_traitsIcESaIcEEENS_13property_tree11basic_ptreeIS8_S8_St4lessIS8_EEEENS0_10indexed_byINS0_9sequencedINS0_3tagIN4mpl_2naESK_SK_SK_SK_SK_SK_SK_SK_SK_SK_SK_SK_SK_SK_SK_SK_SK_SK_SK_EEEENS0_18ordered_non_uniqueINSI_INSE_4subs7by_nameESK_SK_SK_SK_SK_SK_SK_SK_SK_SK_SK_SK_SK_SK_SK_SK_SK_SK_SK_EENS0_6memberISF_S9_XadL_ZNSF_5firstEEEEESD_EESK_SK_SK_SK_SK_SK_SK_SK_SK_SK_SK_SK_SK_SK_SK_SK_SK_SK_EESaISF_EEC1Ev
	.def	_ZN5boost11multi_index21multi_index_containerISt4pairIKNSt7__cxx1112basic_stringIcSt11char_traitsIcESaIcEEENS_13property_tree11basic_ptreeIS8_S8_St4lessIS8_EEEENS0_10indexed_byINS0_9sequencedINS0_3tagIN4mpl_2naESK_SK_SK_SK_SK_SK_SK_SK_SK_SK_SK_SK_SK_SK_SK_SK_SK_SK_SK_EEEENS0_18ordered_non_uniqueINSI_INSE_4subs7by_nameESK_SK_SK_SK_SK_SK_SK_SK_SK_SK_SK_SK_SK_SK_SK_SK_SK_SK_SK_EENS0_6memberISF_S9_XadL_ZNSF_5firstEEEEESD_EESK_SK_SK_SK_SK_SK_SK_SK_SK_SK_SK_SK_SK_SK_SK_SK_SK_SK_EESaISF_EEC1Ev;	.scl	2;	.type	32;	.endef
	.seh_proc	_ZN5boost11multi_index21multi_index_containerISt4pairIKNSt7__cxx1112basic_stringIcSt11char_traitsIcESaIcEEENS_13property_tree11basic_ptreeIS8_S8_St4lessIS8_EEEENS0_10indexed_byINS0_9sequencedINS0_3tagIN4mpl_2naESK_SK_SK_SK_SK_SK_SK_SK_SK_SK_SK_SK_SK_SK_SK_SK_SK_SK_SK_EEEENS0_18ordered_non_uniqueINSI_INSE_4subs7by_nameESK_SK_SK_SK_SK_SK_SK_SK_SK_SK_SK_SK_SK_SK_SK_SK_SK_SK_SK_EENS0_6memberISF_S9_XadL_ZNSF_5firstEEEEESD_EESK_SK_SK_SK_SK_SK_SK_SK_SK_SK_SK_SK_SK_SK_SK_SK_SK_SK_EESaISF_EEC1Ev
_ZN5boost11multi_index21multi_index_containerISt4pairIKNSt7__cxx1112basic_stringIcSt11char_traitsIcESaIcEEENS_13property_tree11basic_ptreeIS8_S8_St4lessIS8_EEEENS0_10indexed_byINS0_9sequencedINS0_3tagIN4mpl_2naESK_SK_SK_SK_SK_SK_SK_SK_SK_SK_SK_SK_SK_SK_SK_SK_SK_SK_SK_EEEENS0_18ordered_non_uniqueINSI_INSE_4subs7by_nameESK_SK_SK_SK_SK_SK_SK_SK_SK_SK_SK_SK_SK_SK_SK_SK_SK_SK_SK_EENS0_6memberISF_S9_XadL_ZNSF_5firstEEEEESD_EESK_SK_SK_SK_SK_SK_SK_SK_SK_SK_SK_SK_SK_SK_SK_SK_SK_SK_EESaISF_EEC1Ev:
.LFB6715:
	pushq	%rbp
	.seh_pushreg	%rbp
	pushq	%rbx
	.seh_pushreg	%rbx
	subq	$56, %rsp
	.seh_stackalloc	56
	leaq	128(%rsp), %rbp
	.seh_setframe	%rbp, 128
	.seh_endprologue
	movq	%rcx, -48(%rbp)
	movq	-48(%rbp), %rbx
	leaq	-85(%rbp), %rax
	movq	%rax, %rcx
	call	_ZNSaISt4pairIKNSt7__cxx1112basic_stringIcSt11char_traitsIcESaIcEEEN5boost13property_tree11basic_ptreeIS5_S5_St4lessIS5_EEEEEC1Ev
	leaq	-85(%rbp), %rax
	movq	%rax, %rdx
	movq	%rbx, %rcx
	call	_ZN5boost16base_from_memberISaINS_11multi_index6detail20sequenced_index_nodeINS2_18ordered_index_nodeINS2_19null_augment_policyENS2_15index_node_baseISt4pairIKNSt7__cxx1112basic_stringIcSt11char_traitsIcESaIcEEENS_13property_tree11basic_ptreeISD_SD_St4lessISD_EEEESaISK_EEEEEEEELi0EEC2IJSL_EvEEDpOT_
	leaq	-85(%rbp), %rax
	movq	%rax, %rcx
	call	_ZNSaISt4pairIKNSt7__cxx1112basic_stringIcSt11char_traitsIcESaIcEEEN5boost13property_tree11basic_ptreeIS5_S5_St4lessIS5_EEEEED1Ev
	movq	-48(%rbp), %rax
	addq	$8, %rax
	movq	%rax, %rcx
.LEHB36:
	call	_ZN5boost11multi_index6detail13header_holderIPNS1_20sequenced_index_nodeINS1_18ordered_index_nodeINS1_19null_augment_policyENS1_15index_node_baseISt4pairIKNSt7__cxx1112basic_stringIcSt11char_traitsIcESaIcEEENS_13property_tree11basic_ptreeISD_SD_St4lessISD_EEEESaISK_EEEEEEENS0_21multi_index_containerISK_NS0_10indexed_byINS0_9sequencedINS0_3tagIN4mpl_2naESV_SV_SV_SV_SV_SV_SV_SV_SV_SV_SV_SV_SV_SV_SV_SV_SV_SV_SV_EEEENS0_18ordered_non_uniqueINST_INSJ_4subs7by_nameESV_SV_SV_SV_SV_SV_SV_SV_SV_SV_SV_SV_SV_SV_SV_SV_SV_SV_SV_EENS0_6memberISK_SE_XadL_ZNSK_5firstEEEEESI_EESV_SV_SV_SV_SV_SV_SV_SV_SV_SV_SV_SV_SV_SV_SV_SV_SV_SV_EESL_EEEC2Ev
.LEHE36:
	movq	-48(%rbp), %rax
	leaq	16(%rax), %rbx
	movq	-48(%rbp), %rdx
	leaq	-84(%rbp), %rax
	movq	%rax, %rcx
	call	_ZNSaISt4pairIKNSt7__cxx1112basic_stringIcSt11char_traitsIcESaIcEEEN5boost13property_tree11basic_ptreeIS5_S5_St4lessIS5_EEEEEC1INS7_11multi_index6detail20sequenced_index_nodeINSH_18ordered_index_nodeINSH_19null_augment_policyENSH_15index_node_baseISD_SE_EEEEEEEERKSaIT_E
	leaq	-83(%rbp), %rax
	movq	%rax, %rcx
.LEHB37:
	call	_ZN5boost6tuples4consINS0_9null_typeENS1_INS0_5tupleINS_11multi_index6memberISt4pairIKNSt7__cxx1112basic_stringIcSt11char_traitsIcESaIcEEENS_13property_tree11basic_ptreeISC_SC_St4lessISC_EEEESD_XadL_ZNSJ_5firstEEEEESH_S2_S2_S2_S2_S2_S2_S2_S2_EES2_EEEC1Ev
	leaq	-84(%rbp), %rdx
	leaq	-83(%rbp), %rax
	movq	%rdx, %r8
	movq	%rax, %rdx
	movq	%rbx, %rcx
	call	_ZN5boost11multi_index6detail15sequenced_indexINS1_9nth_layerILi1ESt4pairIKNSt7__cxx1112basic_stringIcSt11char_traitsIcESaIcEEENS_13property_tree11basic_ptreeISA_SA_St4lessISA_EEEENS0_10indexed_byINS0_9sequencedINS0_3tagIN4mpl_2naESM_SM_SM_SM_SM_SM_SM_SM_SM_SM_SM_SM_SM_SM_SM_SM_SM_SM_SM_EEEENS0_18ordered_non_uniqueINSK_INSG_4subs7by_nameESM_SM_SM_SM_SM_SM_SM_SM_SM_SM_SM_SM_SM_SM_SM_SM_SM_SM_SM_EENS0_6memberISH_SB_XadL_ZNSH_5firstEEEEESF_EESM_SM_SM_SM_SM_SM_SM_SM_SM_SM_SM_SM_SM_SM_SM_SM_SM_SM_EESaISH_EEENS_3mpl7vector0ISM_EEEC2ERKNS_6tuples4consINS13_9null_typeENS14_INS13_5tupleISU_SF_S15_S15_S15_S15_S15_S15_S15_S15_EES15_EEEERKSX_
.LEHE37:
	leaq	-84(%rbp), %rax
	movq	%rax, %rcx
	call	_ZNSaISt4pairIKNSt7__cxx1112basic_stringIcSt11char_traitsIcESaIcEEEN5boost13property_tree11basic_ptreeIS5_S5_St4lessIS5_EEEEED1Ev
	movq	-48(%rbp), %rax
	movq	$0, 24(%rax)
	jmp	.L182
.L181:
	movq	%rax, %rbx
	leaq	-84(%rbp), %rax
	movq	%rax, %rcx
	call	_ZNSaISt4pairIKNSt7__cxx1112basic_stringIcSt11char_traitsIcESaIcEEEN5boost13property_tree11basic_ptreeIS5_S5_St4lessIS5_EEEEED1Ev
	movq	-48(%rbp), %rax
	addq	$8, %rax
	movq	%rax, %rcx
	call	_ZN5boost11multi_index6detail13header_holderIPNS1_20sequenced_index_nodeINS1_18ordered_index_nodeINS1_19null_augment_policyENS1_15index_node_baseISt4pairIKNSt7__cxx1112basic_stringIcSt11char_traitsIcESaIcEEENS_13property_tree11basic_ptreeISD_SD_St4lessISD_EEEESaISK_EEEEEEENS0_21multi_index_containerISK_NS0_10indexed_byINS0_9sequencedINS0_3tagIN4mpl_2naESV_SV_SV_SV_SV_SV_SV_SV_SV_SV_SV_SV_SV_SV_SV_SV_SV_SV_SV_EEEENS0_18ordered_non_uniqueINST_INSJ_4subs7by_nameESV_SV_SV_SV_SV_SV_SV_SV_SV_SV_SV_SV_SV_SV_SV_SV_SV_SV_SV_EENS0_6memberISK_SE_XadL_ZNSK_5firstEEEEESI_EESV_SV_SV_SV_SV_SV_SV_SV_SV_SV_SV_SV_SV_SV_SV_SV_SV_SV_EESL_EEED2Ev
	jmp	.L179
.L180:
	movq	%rax, %rbx
.L179:
	movq	-48(%rbp), %rax
	movq	%rax, %rcx
	call	_ZN5boost16base_from_memberISaINS_11multi_index6detail20sequenced_index_nodeINS2_18ordered_index_nodeINS2_19null_augment_policyENS2_15index_node_baseISt4pairIKNSt7__cxx1112basic_stringIcSt11char_traitsIcESaIcEEENS_13property_tree11basic_ptreeISD_SD_St4lessISD_EEEESaISK_EEEEEEEELi0EED2Ev
	movq	%rbx, %rax
	movq	%rax, %rcx
.LEHB38:
	call	_Unwind_Resume
	nop
.LEHE38:
.L182:
	addq	$56, %rsp
	popq	%rbx
	popq	%rbp
	ret
	.seh_handler	__gxx_personality_seh0, @unwind, @except
	.seh_handlerdata
.LLSDA6715:
	.byte	0xff
	.byte	0xff
	.byte	0x1
	.uleb128 .LLSDACSE6715-.LLSDACSB6715
.LLSDACSB6715:
	.uleb128 .LEHB36-.LFB6715
	.uleb128 .LEHE36-.LEHB36
	.uleb128 .L180-.LFB6715
	.uleb128 0
	.uleb128 .LEHB37-.LFB6715
	.uleb128 .LEHE37-.LEHB37
	.uleb128 .L181-.LFB6715
	.uleb128 0
	.uleb128 .LEHB38-.LFB6715
	.uleb128 .LEHE38-.LEHB38
	.uleb128 0
	.uleb128 0
.LLSDACSE6715:
	.section	.text$_ZN5boost11multi_index21multi_index_containerISt4pairIKNSt7__cxx1112basic_stringIcSt11char_traitsIcESaIcEEENS_13property_tree11basic_ptreeIS8_S8_St4lessIS8_EEEENS0_10indexed_byINS0_9sequencedINS0_3tagIN4mpl_2naESK_SK_SK_SK_SK_SK_SK_SK_SK_SK_SK_SK_SK_SK_SK_SK_SK_SK_SK_EEEENS0_18ordered_non_uniqueINSI_INSE_4subs7by_nameESK_SK_SK_SK_SK_SK_SK_SK_SK_SK_SK_SK_SK_SK_SK_SK_SK_SK_SK_EENS0_6memberISF_S9_XadL_ZNSF_5firstEEEEESD_EESK_SK_SK_SK_SK_SK_SK_SK_SK_SK_SK_SK_SK_SK_SK_SK_SK_SK_EESaISF_EEC1Ev,"x"
	.linkonce discard
	.seh_endproc
	.section	.text$_ZN5boost13property_tree11basic_ptreeINSt7__cxx1112basic_stringIcSt11char_traitsIcESaIcEEES7_St4lessIS7_EE4subs2chEPSA_,"x"
	.linkonce discard
	.globl	_ZN5boost13property_tree11basic_ptreeINSt7__cxx1112basic_stringIcSt11char_traitsIcESaIcEEES7_St4lessIS7_EE4subs2chEPSA_
	.def	_ZN5boost13property_tree11basic_ptreeINSt7__cxx1112basic_stringIcSt11char_traitsIcESaIcEEES7_St4lessIS7_EE4subs2chEPSA_;	.scl	2;	.type	32;	.endef
	.seh_proc	_ZN5boost13property_tree11basic_ptreeINSt7__cxx1112basic_stringIcSt11char_traitsIcESaIcEEES7_St4lessIS7_EE4subs2chEPSA_
_ZN5boost13property_tree11basic_ptreeINSt7__cxx1112basic_stringIcSt11char_traitsIcESaIcEEES7_St4lessIS7_EE4subs2chEPSA_:
.LFB6716:
	pushq	%rbp
	.seh_pushreg	%rbp
	movq	%rsp, %rbp
	.seh_setframe	%rbp, 0
	.seh_endprologue
	movq	%rcx, 16(%rbp)
	movq	16(%rbp), %rax
	movq	32(%rax), %rax
	popq	%rbp
	ret
	.seh_endproc
	.section	.text$_ZN5boost11multi_index21multi_index_containerISt4pairIKNSt7__cxx1112basic_stringIcSt11char_traitsIcESaIcEEENS_13property_tree11basic_ptreeIS8_S8_St4lessIS8_EEEENS0_10indexed_byINS0_9sequencedINS0_3tagIN4mpl_2naESK_SK_SK_SK_SK_SK_SK_SK_SK_SK_SK_SK_SK_SK_SK_SK_SK_SK_SK_EEEENS0_18ordered_non_uniqueINSI_INSE_4subs7by_nameESK_SK_SK_SK_SK_SK_SK_SK_SK_SK_SK_SK_SK_SK_SK_SK_SK_SK_SK_EENS0_6memberISF_S9_XadL_ZNSF_5firstEEEEESD_EESK_SK_SK_SK_SK_SK_SK_SK_SK_SK_SK_SK_SK_SK_SK_SK_SK_SK_EESaISF_EED1Ev,"x"
	.linkonce discard
	.align 2
	.globl	_ZN5boost11multi_index21multi_index_containerISt4pairIKNSt7__cxx1112basic_stringIcSt11char_traitsIcESaIcEEENS_13property_tree11basic_ptreeIS8_S8_St4lessIS8_EEEENS0_10indexed_byINS0_9sequencedINS0_3tagIN4mpl_2naESK_SK_SK_SK_SK_SK_SK_SK_SK_SK_SK_SK_SK_SK_SK_SK_SK_SK_SK_EEEENS0_18ordered_non_uniqueINSI_INSE_4subs7by_nameESK_SK_SK_SK_SK_SK_SK_SK_SK_SK_SK_SK_SK_SK_SK_SK_SK_SK_SK_EENS0_6memberISF_S9_XadL_ZNSF_5firstEEEEESD_EESK_SK_SK_SK_SK_SK_SK_SK_SK_SK_SK_SK_SK_SK_SK_SK_SK_SK_EESaISF_EED1Ev
	.def	_ZN5boost11multi_index21multi_index_containerISt4pairIKNSt7__cxx1112basic_stringIcSt11char_traitsIcESaIcEEENS_13property_tree11basic_ptreeIS8_S8_St4lessIS8_EEEENS0_10indexed_byINS0_9sequencedINS0_3tagIN4mpl_2naESK_SK_SK_SK_SK_SK_SK_SK_SK_SK_SK_SK_SK_SK_SK_SK_SK_SK_SK_EEEENS0_18ordered_non_uniqueINSI_INSE_4subs7by_nameESK_SK_SK_SK_SK_SK_SK_SK_SK_SK_SK_SK_SK_SK_SK_SK_SK_SK_SK_EENS0_6memberISF_S9_XadL_ZNSF_5firstEEEEESD_EESK_SK_SK_SK_SK_SK_SK_SK_SK_SK_SK_SK_SK_SK_SK_SK_SK_SK_EESaISF_EED1Ev;	.scl	2;	.type	32;	.endef
	.seh_proc	_ZN5boost11multi_index21multi_index_containerISt4pairIKNSt7__cxx1112basic_stringIcSt11char_traitsIcESaIcEEENS_13property_tree11basic_ptreeIS8_S8_St4lessIS8_EEEENS0_10indexed_byINS0_9sequencedINS0_3tagIN4mpl_2naESK_SK_SK_SK_SK_SK_SK_SK_SK_SK_SK_SK_SK_SK_SK_SK_SK_SK_SK_EEEENS0_18ordered_non_uniqueINSI_INSE_4subs7by_nameESK_SK_SK_SK_SK_SK_SK_SK_SK_SK_SK_SK_SK_SK_SK_SK_SK_SK_SK_EENS0_6memberISF_S9_XadL_ZNSF_5firstEEEEESD_EESK_SK_SK_SK_SK_SK_SK_SK_SK_SK_SK_SK_SK_SK_SK_SK_SK_SK_EESaISF_EED1Ev
_ZN5boost11multi_index21multi_index_containerISt4pairIKNSt7__cxx1112basic_stringIcSt11char_traitsIcESaIcEEENS_13property_tree11basic_ptreeIS8_S8_St4lessIS8_EEEENS0_10indexed_byINS0_9sequencedINS0_3tagIN4mpl_2naESK_SK_SK_SK_SK_SK_SK_SK_SK_SK_SK_SK_SK_SK_SK_SK_SK_SK_SK_EEEENS0_18ordered_non_uniqueINSI_INSE_4subs7by_nameESK_SK_SK_SK_SK_SK_SK_SK_SK_SK_SK_SK_SK_SK_SK_SK_SK_SK_SK_EENS0_6memberISF_S9_XadL_ZNSF_5firstEEEEESD_EESK_SK_SK_SK_SK_SK_SK_SK_SK_SK_SK_SK_SK_SK_SK_SK_SK_SK_EESaISF_EED1Ev:
.LFB6719:
	pushq	%rbp
	.seh_pushreg	%rbp
	movq	%rsp, %rbp
	.seh_setframe	%rbp, 0
	subq	$32, %rsp
	.seh_stackalloc	32
	.seh_endprologue
	movq	%rcx, 16(%rbp)
	movq	16(%rbp), %rcx
	call	_ZN5boost11multi_index21multi_index_containerISt4pairIKNSt7__cxx1112basic_stringIcSt11char_traitsIcESaIcEEENS_13property_tree11basic_ptreeIS8_S8_St4lessIS8_EEEENS0_10indexed_byINS0_9sequencedINS0_3tagIN4mpl_2naESK_SK_SK_SK_SK_SK_SK_SK_SK_SK_SK_SK_SK_SK_SK_SK_SK_SK_SK_EEEENS0_18ordered_non_uniqueINSI_INSE_4subs7by_nameESK_SK_SK_SK_SK_SK_SK_SK_SK_SK_SK_SK_SK_SK_SK_SK_SK_SK_SK_EENS0_6memberISF_S9_XadL_ZNSF_5firstEEEEESD_EESK_SK_SK_SK_SK_SK_SK_SK_SK_SK_SK_SK_SK_SK_SK_SK_SK_SK_EESaISF_EE17delete_all_nodes_Ev
	movq	16(%rbp), %rax
	addq	$16, %rax
	movq	%rax, %rcx
	call	_ZN5boost11multi_index6detail15sequenced_indexINS1_9nth_layerILi1ESt4pairIKNSt7__cxx1112basic_stringIcSt11char_traitsIcESaIcEEENS_13property_tree11basic_ptreeISA_SA_St4lessISA_EEEENS0_10indexed_byINS0_9sequencedINS0_3tagIN4mpl_2naESM_SM_SM_SM_SM_SM_SM_SM_SM_SM_SM_SM_SM_SM_SM_SM_SM_SM_SM_EEEENS0_18ordered_non_uniqueINSK_INSG_4subs7by_nameESM_SM_SM_SM_SM_SM_SM_SM_SM_SM_SM_SM_SM_SM_SM_SM_SM_SM_SM_EENS0_6memberISH_SB_XadL_ZNSH_5firstEEEEESF_EESM_SM_SM_SM_SM_SM_SM_SM_SM_SM_SM_SM_SM_SM_SM_SM_SM_SM_EESaISH_EEENS_3mpl7vector0ISM_EEED2Ev
	movq	16(%rbp), %rax
	addq	$8, %rax
	movq	%rax, %rcx
	call	_ZN5boost11multi_index6detail13header_holderIPNS1_20sequenced_index_nodeINS1_18ordered_index_nodeINS1_19null_augment_policyENS1_15index_node_baseISt4pairIKNSt7__cxx1112basic_stringIcSt11char_traitsIcESaIcEEENS_13property_tree11basic_ptreeISD_SD_St4lessISD_EEEESaISK_EEEEEEENS0_21multi_index_containerISK_NS0_10indexed_byINS0_9sequencedINS0_3tagIN4mpl_2naESV_SV_SV_SV_SV_SV_SV_SV_SV_SV_SV_SV_SV_SV_SV_SV_SV_SV_SV_EEEENS0_18ordered_non_uniqueINST_INSJ_4subs7by_nameESV_SV_SV_SV_SV_SV_SV_SV_SV_SV_SV_SV_SV_SV_SV_SV_SV_SV_SV_EENS0_6memberISK_SE_XadL_ZNSK_5firstEEEEESI_EESV_SV_SV_SV_SV_SV_SV_SV_SV_SV_SV_SV_SV_SV_SV_SV_SV_SV_EESL_EEED2Ev
	movq	16(%rbp), %rax
	movq	%rax, %rcx
	call	_ZN5boost16base_from_memberISaINS_11multi_index6detail20sequenced_index_nodeINS2_18ordered_index_nodeINS2_19null_augment_policyENS2_15index_node_baseISt4pairIKNSt7__cxx1112basic_stringIcSt11char_traitsIcESaIcEEENS_13property_tree11basic_ptreeISD_SD_St4lessISD_EEEESaISK_EEEEEEEELi0EED2Ev
	nop
	addq	$32, %rsp
	popq	%rbp
	ret
	.seh_handler	__gxx_personality_seh0, @unwind, @except
	.seh_handlerdata
.LLSDA6719:
	.byte	0xff
	.byte	0xff
	.byte	0x1
	.uleb128 .LLSDACSE6719-.LLSDACSB6719
.LLSDACSB6719:
.LLSDACSE6719:
	.section	.text$_ZN5boost11multi_index21multi_index_containerISt4pairIKNSt7__cxx1112basic_stringIcSt11char_traitsIcESaIcEEENS_13property_tree11basic_ptreeIS8_S8_St4lessIS8_EEEENS0_10indexed_byINS0_9sequencedINS0_3tagIN4mpl_2naESK_SK_SK_SK_SK_SK_SK_SK_SK_SK_SK_SK_SK_SK_SK_SK_SK_SK_SK_EEEENS0_18ordered_non_uniqueINSI_INSE_4subs7by_nameESK_SK_SK_SK_SK_SK_SK_SK_SK_SK_SK_SK_SK_SK_SK_SK_SK_SK_SK_EENS0_6memberISF_S9_XadL_ZNSF_5firstEEEEESD_EESK_SK_SK_SK_SK_SK_SK_SK_SK_SK_SK_SK_SK_SK_SK_SK_SK_SK_EESaISF_EED1Ev,"x"
	.linkonce discard
	.seh_endproc
	.section	.text$_ZN5boost16exception_detail16throw_exception_INS_13property_tree10xml_parser16xml_parser_errorEEEvRKT_PKcS9_i,"x"
	.linkonce discard
	.globl	_ZN5boost16exception_detail16throw_exception_INS_13property_tree10xml_parser16xml_parser_errorEEEvRKT_PKcS9_i
	.def	_ZN5boost16exception_detail16throw_exception_INS_13property_tree10xml_parser16xml_parser_errorEEEvRKT_PKcS9_i;	.scl	2;	.type	32;	.endef
	.seh_proc	_ZN5boost16exception_detail16throw_exception_INS_13property_tree10xml_parser16xml_parser_errorEEEvRKT_PKcS9_i
_ZN5boost16exception_detail16throw_exception_INS_13property_tree10xml_parser16xml_parser_errorEEEvRKT_PKcS9_i:
.LFB6728:
	pushq	%rbp
	.seh_pushreg	%rbp
	pushq	%rbx
	.seh_pushreg	%rbx
	subq	$200, %rsp
	.seh_stackalloc	200
	leaq	128(%rsp), %rbp
	.seh_setframe	%rbp, 128
	.seh_endprologue
	movq	%rcx, 96(%rbp)
	movq	%rdx, 104(%rbp)
	movq	%r8, 112(%rbp)
	movl	%r9d, 120(%rbp)
	movl	120(%rbp), %edx
	leaq	-84(%rbp), %rax
	movq	%rax, %rcx
	call	_ZN5boost10error_infoINS_11throw_line_EiEC1Ei
	movq	112(%rbp), %rdx
	leaq	-80(%rbp), %rax
	movq	%rax, %rcx
	call	_ZN5boost10error_infoINS_11throw_file_EPKcEC1ES3_
	movq	104(%rbp), %rdx
	leaq	-72(%rbp), %rax
	movq	%rax, %rcx
	call	_ZN5boost10error_infoINS_15throw_function_EPKcEC1ES3_
	leaq	-64(%rbp), %rax
	movq	96(%rbp), %rdx
	movq	%rax, %rcx
.LEHB39:
	call	_ZN5boost17enable_error_infoINS_13property_tree10xml_parser16xml_parser_errorEEENS_16exception_detail29enable_error_info_return_typeIT_E4typeERKS6_
.LEHE39:
	leaq	-72(%rbp), %rdx
	leaq	-64(%rbp), %rax
	movq	%rax, %rcx
	call	_ZN5boost16exception_detail8set_infoINS0_19error_info_injectorINS_13property_tree10xml_parser16xml_parser_errorEEEEERKT_S9_RKNS_10error_infoINS_15throw_function_EPKcEE
	movq	%rax, %rcx
	leaq	-80(%rbp), %rax
	movq	%rax, %rdx
	call	_ZN5boost16exception_detail8set_infoINS0_19error_info_injectorINS_13property_tree10xml_parser16xml_parser_errorEEEEERKT_S9_RKNS_10error_infoINS_11throw_file_EPKcEE
	movq	%rax, %rcx
	leaq	-84(%rbp), %rax
	movq	%rax, %rdx
	call	_ZN5boost16exception_detail8set_infoINS0_19error_info_injectorINS_13property_tree10xml_parser16xml_parser_errorEEEEERKT_S9_RKNS_10error_infoINS_11throw_line_EiEE
	movq	%rax, %rcx
.LEHB40:
	call	_ZN5boost15throw_exceptionINS_16exception_detail19error_info_injectorINS_13property_tree10xml_parser16xml_parser_errorEEEEEvRKT_
.LEHE40:
.L190:
	movq	%rax, %rbx
	leaq	-64(%rbp), %rax
	movq	%rax, %rcx
	call	_ZN5boost16exception_detail19error_info_injectorINS_13property_tree10xml_parser16xml_parser_errorEED1Ev
	movq	%rbx, %rax
	jmp	.L188
.L189:
.L188:
	movq	%rax, %rcx
.LEHB41:
	call	_Unwind_Resume
	nop
.LEHE41:
	.seh_handler	__gxx_personality_seh0, @unwind, @except
	.seh_handlerdata
.LLSDA6728:
	.byte	0xff
	.byte	0xff
	.byte	0x1
	.uleb128 .LLSDACSE6728-.LLSDACSB6728
.LLSDACSB6728:
	.uleb128 .LEHB39-.LFB6728
	.uleb128 .LEHE39-.LEHB39
	.uleb128 .L189-.LFB6728
	.uleb128 0
	.uleb128 .LEHB40-.LFB6728
	.uleb128 .LEHE40-.LEHB40
	.uleb128 .L190-.LFB6728
	.uleb128 0
	.uleb128 .LEHB41-.LFB6728
	.uleb128 .LEHE41-.LEHB41
	.uleb128 0
	.uleb128 0
.LLSDACSE6728:
	.section	.text$_ZN5boost16exception_detail16throw_exception_INS_13property_tree10xml_parser16xml_parser_errorEEEvRKT_PKcS9_i,"x"
	.linkonce discard
	.seh_endproc
	.section	.text$_ZN5boost13property_tree6detail8rapidxml12xml_documentIcED1Ev,"x"
	.linkonce discard
	.align 2
	.globl	_ZN5boost13property_tree6detail8rapidxml12xml_documentIcED1Ev
	.def	_ZN5boost13property_tree6detail8rapidxml12xml_documentIcED1Ev;	.scl	2;	.type	32;	.endef
	.seh_proc	_ZN5boost13property_tree6detail8rapidxml12xml_documentIcED1Ev
_ZN5boost13property_tree6detail8rapidxml12xml_documentIcED1Ev:
.LFB6732:
	pushq	%rbp
	.seh_pushreg	%rbp
	movq	%rsp, %rbp
	.seh_setframe	%rbp, 0
	subq	$32, %rsp
	.seh_stackalloc	32
	.seh_endprologue
	movq	%rcx, 16(%rbp)
	movq	16(%rbp), %rax
	addq	$96, %rax
	movq	%rax, %rcx
	call	_ZN5boost13property_tree6detail8rapidxml11memory_poolIcED2Ev
	nop
	addq	$32, %rsp
	popq	%rbp
	ret
	.seh_endproc
	.section .rdata,"dr"
.LC9:
	.ascii "read error\0"
	.align 8
.LC10:
	.ascii "C:/msys64/mingw64/include/boost/property_tree/detail/xml_parser_read_rapidxml.hpp\0"
	.align 8
.LC11:
	.ascii "void boost::property_tree::xml_parser::read_xml_internal(std::basic_istream<typename Ptree::key_type::value_type>&, Ptree&, int, const string&) [with Ptree = boost::property_tree::basic_ptree<std::__cxx11::basic_string<char>, std::__cxx11::basic_string<char> >; typename Ptree::key_type::value_type = char; typename Ptree::key_type::value_type = char; std::string = std::__cxx11::basic_string<char>]\0"
	.section	.text$_ZN5boost13property_tree10xml_parser17read_xml_internalINS0_11basic_ptreeINSt7__cxx1112basic_stringIcSt11char_traitsIcESaIcEEES9_St4lessIS9_EEEEEvRSt13basic_istreamINT_8key_type10value_typeES6_ISG_EERSE_iRKS9_,"x"
	.linkonce discard
	.globl	_ZN5boost13property_tree10xml_parser17read_xml_internalINS0_11basic_ptreeINSt7__cxx1112basic_stringIcSt11char_traitsIcESaIcEEES9_St4lessIS9_EEEEEvRSt13basic_istreamINT_8key_type10value_typeES6_ISG_EERSE_iRKS9_
	.def	_ZN5boost13property_tree10xml_parser17read_xml_internalINS0_11basic_ptreeINSt7__cxx1112basic_stringIcSt11char_traitsIcESaIcEEES9_St4lessIS9_EEEEEvRSt13basic_istreamINT_8key_type10value_typeES6_ISG_EERSE_iRKS9_;	.scl	2;	.type	32;	.endef
	.seh_proc	_ZN5boost13property_tree10xml_parser17read_xml_internalINS0_11basic_ptreeINSt7__cxx1112basic_stringIcSt11char_traitsIcESaIcEEES9_St4lessIS9_EEEEEvRSt13basic_istreamINT_8key_type10value_typeES6_ISG_EERSE_iRKS9_
_ZN5boost13property_tree10xml_parser17read_xml_internalINS0_11basic_ptreeINSt7__cxx1112basic_stringIcSt11char_traitsIcESaIcEEES9_St4lessIS9_EEEEEvRSt13basic_istreamINT_8key_type10value_typeES6_ISG_EERSE_iRKS9_:
.LFB6729:
	pushq	%rbp
	.seh_pushreg	%rbp
	pushq	%rsi
	.seh_pushreg	%rsi
	pushq	%rbx
	.seh_pushreg	%rbx
	movl	$66176, %eax
	call	___chkstk_ms
	subq	%rax, %rsp
	.seh_stackalloc	66176
	leaq	128(%rsp), %rbp
	.seh_setframe	%rbp, 128
	.seh_endprologue
	movq	%rcx, 66080(%rbp)
	movq	%rdx, 66088(%rbp)
	movl	%r8d, 66096(%rbp)
	movq	%r9, 66104(%rbp)
	movq	66080(%rbp), %rax
	movq	(%rax), %rax
	subq	$24, %rax
	movq	(%rax), %rax
	movq	%rax, %rdx
	movq	66080(%rbp), %rax
	addq	%rdx, %rax
	movl	$4096, %edx
	movq	%rax, %rcx
	call	_ZNSt8ios_base6unsetfESt13_Ios_Fmtflags
	leaq	65695(%rbp), %rax
	movq	%rax, %rcx
	call	_ZNSaIcEC1Ev
	leaq	65696(%rbp), %rax
	movq	%rax, %rcx
	call	_ZNSt19istreambuf_iteratorIcSt11char_traitsIcEEC1Ev
	movq	66080(%rbp), %rax
	movq	(%rax), %rax
	subq	$24, %rax
	movq	(%rax), %rax
	movq	%rax, %rdx
	movq	66080(%rbp), %rax
	addq	%rdx, %rax
	movq	%rax, %rcx
.LEHB42:
	call	_ZNKSt9basic_iosIcSt11char_traitsIcEE5rdbufEv
	movq	%rax, %rdx
	leaq	65712(%rbp), %rax
	movq	%rax, %rcx
	call	_ZNSt19istreambuf_iteratorIcSt11char_traitsIcEEC1EPSt15basic_streambufIcS1_E
	movq	65712(%rbp), %rax
	movq	65720(%rbp), %rdx
	movq	%rax, -80(%rbp)
	movq	%rdx, -72(%rbp)
	movq	65696(%rbp), %rax
	movq	65704(%rbp), %rdx
	movq	%rax, -96(%rbp)
	movq	%rdx, -88(%rbp)
	leaq	65695(%rbp), %r8
	leaq	-96(%rbp), %rcx
	leaq	-80(%rbp), %rdx
	leaq	65664(%rbp), %rax
	movq	%r8, %r9
	movq	%rcx, %r8
	movq	%rax, %rcx
	call	_ZNSt6vectorIcSaIcEEC1ISt19istreambuf_iteratorIcSt11char_traitsIcEEvEET_S7_RKS0_
.LEHE42:
	leaq	65695(%rbp), %rax
	movq	%rax, %rcx
	call	_ZNSaIcED1Ev
	movq	66080(%rbp), %rax
	movq	(%rax), %rax
	subq	$24, %rax
	movq	(%rax), %rax
	movq	%rax, %rdx
	movq	66080(%rbp), %rax
	addq	%rdx, %rax
	movq	%rax, %rcx
.LEHB43:
	call	_ZNKSt9basic_iosIcSt11char_traitsIcEE4goodEv
.LEHE43:
	xorl	$1, %eax
	testb	%al, %al
	je	.L193
	leaq	65869(%rbp), %rax
	movq	%rax, %rcx
	call	_ZNSaIcEC1Ev
	leaq	65869(%rbp), %rdx
	leaq	65824(%rbp), %rax
	movq	%rdx, %r8
	leaq	.LC9(%rip), %rdx
	movq	%rax, %rcx
.LEHB44:
	call	_ZNSt7__cxx1112basic_stringIcSt11char_traitsIcESaIcEEC1EPKcRKS3_
.LEHE44:
	movq	66104(%rbp), %rcx
	leaq	65824(%rbp), %rdx
	leaq	65728(%rbp), %rax
	movl	$0, %r9d
	movq	%rcx, %r8
	movq	%rax, %rcx
.LEHB45:
	call	_ZN5boost13property_tree10xml_parser16xml_parser_errorC1ERKNSt7__cxx1112basic_stringIcSt11char_traitsIcESaIcEEESA_m
.LEHE45:
	leaq	65728(%rbp), %rax
	movl	$100, %r9d
	leaq	.LC10(%rip), %r8
	leaq	.LC11(%rip), %rdx
	movq	%rax, %rcx
.LEHB46:
	call	_ZN5boost16exception_detail16throw_exception_INS_13property_tree10xml_parser16xml_parser_errorEEEvRKT_PKcS9_i
.LEHE46:
.L193:
	movb	$0, 65870(%rbp)
	leaq	65870(%rbp), %rdx
	leaq	65664(%rbp), %rax
	movq	%rax, %rcx
.LEHB47:
	call	_ZNSt6vectorIcSaIcEE9push_backEOc
.LEHE47:
	movl	$3072, 66036(%rbp)
	movl	$64, 66032(%rbp)
	movl	$3136, 66028(%rbp)
	leaq	-16(%rbp), %rax
	movq	%rax, %rcx
.LEHB48:
	call	_ZN5boost13property_tree6detail8rapidxml12xml_documentIcEC1Ev
.LEHE48:
	movl	66096(%rbp), %eax
	andl	$2, %eax
	testl	%eax, %eax
	je	.L194
	movl	66096(%rbp), %eax
	andl	$4, %eax
	testl	%eax, %eax
	je	.L195
	leaq	65664(%rbp), %rax
	movq	%rax, %rcx
	call	_ZNSt6vectorIcSaIcEE5frontEv
	movq	%rax, %rdx
	leaq	-16(%rbp), %rax
	movq	%rax, %rcx
.LEHB49:
	call	_ZN5boost13property_tree6detail8rapidxml12xml_documentIcE5parseILi3072EEEvPc
	jmp	.L196
.L195:
	leaq	65664(%rbp), %rax
	movq	%rax, %rcx
	call	_ZNSt6vectorIcSaIcEE5frontEv
	movq	%rax, %rdx
	leaq	-16(%rbp), %rax
	movq	%rax, %rcx
	call	_ZN5boost13property_tree6detail8rapidxml12xml_documentIcE5parseILi0EEEvPc
	jmp	.L196
.L194:
	movl	66096(%rbp), %eax
	andl	$4, %eax
	testl	%eax, %eax
	je	.L197
	leaq	65664(%rbp), %rax
	movq	%rax, %rcx
	call	_ZNSt6vectorIcSaIcEE5frontEv
	movq	%rax, %rdx
	leaq	-16(%rbp), %rax
	movq	%rax, %rcx
	call	_ZN5boost13property_tree6detail8rapidxml12xml_documentIcE5parseILi3136EEEvPc
	jmp	.L196
.L197:
	leaq	65664(%rbp), %rax
	movq	%rax, %rcx
	call	_ZNSt6vectorIcSaIcEE5frontEv
	movq	%rax, %rdx
	leaq	-16(%rbp), %rax
	movq	%rax, %rcx
	call	_ZN5boost13property_tree6detail8rapidxml12xml_documentIcE5parseILi64EEEvPc
.L196:
	leaq	-64(%rbp), %rax
	movq	%rax, %rcx
	call	_ZN5boost13property_tree11basic_ptreeINSt7__cxx1112basic_stringIcSt11char_traitsIcESaIcEEES7_St4lessIS7_EEC1Ev
.LEHE49:
	leaq	-16(%rbp), %rax
	movl	$1, %r9d
	movl	$0, %r8d
	movl	$0, %edx
	movq	%rax, %rcx
.LEHB50:
	call	_ZNK5boost13property_tree6detail8rapidxml8xml_nodeIcE10first_nodeEPKcyb
	movq	%rax, 66040(%rbp)
.L199:
	cmpq	$0, 66040(%rbp)
	je	.L198
	movl	66096(%rbp), %ecx
	leaq	-64(%rbp), %rdx
	movq	66040(%rbp), %rax
	movl	%ecx, %r8d
	movq	%rax, %rcx
	call	_ZN5boost13property_tree10xml_parser13read_xml_nodeINS0_11basic_ptreeINSt7__cxx1112basic_stringIcSt11char_traitsIcESaIcEEES9_St4lessIS9_EEEcEEvPNS0_6detail8rapidxml8xml_nodeIT0_EERT_i
	movq	66040(%rbp), %rax
	movl	$1, %r9d
	movl	$0, %r8d
	movl	$0, %edx
	movq	%rax, %rcx
	call	_ZNK5boost13property_tree6detail8rapidxml8xml_nodeIcE12next_siblingEPKcyb
	movq	%rax, 66040(%rbp)
	jmp	.L199
.L198:
	leaq	-64(%rbp), %rdx
	movq	66088(%rbp), %rax
	movq	%rax, %rcx
	call	_ZN5boost13property_tree11basic_ptreeINSt7__cxx1112basic_stringIcSt11char_traitsIcESaIcEEES7_St4lessIS7_EE4swapERSA_
.LEHE50:
	leaq	-64(%rbp), %rax
	movq	%rax, %rcx
	call	_ZN5boost13property_tree11basic_ptreeINSt7__cxx1112basic_stringIcSt11char_traitsIcESaIcEEES7_St4lessIS7_EED1Ev
	leaq	-16(%rbp), %rax
	movq	%rax, %rcx
	call	_ZN5boost13property_tree6detail8rapidxml12xml_documentIcED1Ev
	leaq	65664(%rbp), %rax
	movq	%rax, %rcx
	call	_ZNSt6vectorIcSaIcEED1Ev
	jmp	.L225
.L213:
	movq	%rax, %rbx
	leaq	65695(%rbp), %rax
	movq	%rax, %rcx
	call	_ZNSaIcED1Ev
	movq	%rbx, %rax
	movq	%rax, %rcx
.LEHB51:
	call	_Unwind_Resume
.LEHE51:
.L217:
	movq	%rax, %rbx
	leaq	65728(%rbp), %rax
	movq	%rax, %rcx
	call	_ZN5boost13property_tree10xml_parser16xml_parser_errorD1Ev
	jmp	.L202
.L216:
	movq	%rax, %rbx
.L202:
	leaq	65824(%rbp), %rax
	movq	%rax, %rcx
	call	_ZNSt7__cxx1112basic_stringIcSt11char_traitsIcESaIcEED1Ev
	jmp	.L203
.L215:
	movq	%rax, %rbx
.L203:
	leaq	65869(%rbp), %rax
	movq	%rax, %rcx
	call	_ZNSaIcED1Ev
	jmp	.L204
.L220:
	movq	%rax, %rsi
	movq	%rdx, %rbx
	leaq	-64(%rbp), %rax
	movq	%rax, %rcx
	call	_ZN5boost13property_tree11basic_ptreeINSt7__cxx1112basic_stringIcSt11char_traitsIcESaIcEEES7_St4lessIS7_EED1Ev
	jmp	.L206
.L219:
	movq	%rax, %rsi
	movq	%rdx, %rbx
.L206:
	leaq	-16(%rbp), %rax
	movq	%rax, %rcx
	call	_ZN5boost13property_tree6detail8rapidxml12xml_documentIcED1Ev
	movq	%rsi, %rax
	movq	%rbx, %rdx
	jmp	.L207
.L218:
.L207:
	cmpq	$1, %rdx
	je	.L208
	movq	%rax, %rbx
	jmp	.L204
.L208:
	movq	%rax, %rcx
	call	__cxa_begin_catch
	movq	%rax, 66016(%rbp)
	movb	$10, 65871(%rbp)
	movq	66016(%rbp), %rax
	movq	%rax, %rcx
	call	_ZNK5boost13property_tree6detail8rapidxml11parse_error5whereIcEEPT_v
	movq	%rax, %rbx
	leaq	65664(%rbp), %rax
	movq	%rax, %rcx
	call	_ZNSt6vectorIcSaIcEE5frontEv
	leaq	65871(%rbp), %rdx
	movq	%rdx, %r8
	movq	%rbx, %rdx
	movq	%rax, %rcx
.LEHB52:
	call	_ZSt5countIPccENSt15iterator_traitsIT_E15difference_typeES2_S2_RKT0_
.LEHE52:
	addl	$1, %eax
	movl	%eax, 66012(%rbp)
	movl	66012(%rbp), %ebx
	leaq	66011(%rbp), %rax
	movq	%rax, %rcx
	call	_ZNSaIcEC1Ev
	movq	66016(%rbp), %rax
	movq	(%rax), %rax
	addq	$16, %rax
	movq	(%rax), %rdx
	movq	66016(%rbp), %rax
	movq	%rax, %rcx
	call	*%rdx
	movq	%rax, %rdx
	leaq	66011(%rbp), %rcx
	leaq	65968(%rbp), %rax
	movq	%rcx, %r8
	movq	%rax, %rcx
.LEHB53:
	call	_ZNSt7__cxx1112basic_stringIcSt11char_traitsIcESaIcEEC1EPKcRKS3_
.LEHE53:
	movq	66104(%rbp), %rcx
	leaq	65968(%rbp), %rdx
	leaq	65872(%rbp), %rax
	movl	%ebx, %r9d
	movq	%rcx, %r8
	movq	%rax, %rcx
.LEHB54:
	call	_ZN5boost13property_tree10xml_parser16xml_parser_errorC1ERKNSt7__cxx1112basic_stringIcSt11char_traitsIcESaIcEEESA_m
.LEHE54:
	leaq	65872(%rbp), %rax
	movl	$137, %r9d
	leaq	.LC10(%rip), %r8
	leaq	.LC11(%rip), %rdx
	movq	%rax, %rcx
.LEHB55:
	call	_ZN5boost16exception_detail16throw_exception_INS_13property_tree10xml_parser16xml_parser_errorEEEvRKT_PKcS9_i
.LEHE55:
.L224:
	movq	%rax, %rbx
	leaq	65872(%rbp), %rax
	movq	%rax, %rcx
	call	_ZN5boost13property_tree10xml_parser16xml_parser_errorD1Ev
	jmp	.L210
.L223:
	movq	%rax, %rbx
.L210:
	leaq	65968(%rbp), %rax
	movq	%rax, %rcx
	call	_ZNSt7__cxx1112basic_stringIcSt11char_traitsIcESaIcEED1Ev
	jmp	.L211
.L222:
	movq	%rax, %rbx
.L211:
	leaq	66011(%rbp), %rax
	movq	%rax, %rcx
	call	_ZNSaIcED1Ev
	jmp	.L212
.L221:
	movq	%rax, %rbx
.L212:
	call	__cxa_end_catch
	jmp	.L204
.L214:
	movq	%rax, %rbx
.L204:
	leaq	65664(%rbp), %rax
	movq	%rax, %rcx
	call	_ZNSt6vectorIcSaIcEED1Ev
	movq	%rbx, %rax
	movq	%rax, %rcx
.LEHB56:
	call	_Unwind_Resume
	nop
.LEHE56:
.L225:
	addq	$66176, %rsp
	popq	%rbx
	popq	%rsi
	popq	%rbp
	ret
	.seh_handler	__gxx_personality_seh0, @unwind, @except
	.seh_handlerdata
	.align 4
.LLSDA6729:
	.byte	0xff
	.byte	0x9b
	.uleb128 .LLSDATT6729-.LLSDATTD6729
.LLSDATTD6729:
	.byte	0x1
	.uleb128 .LLSDACSE6729-.LLSDACSB6729
.LLSDACSB6729:
	.uleb128 .LEHB42-.LFB6729
	.uleb128 .LEHE42-.LEHB42
	.uleb128 .L213-.LFB6729
	.uleb128 0
	.uleb128 .LEHB43-.LFB6729
	.uleb128 .LEHE43-.LEHB43
	.uleb128 .L214-.LFB6729
	.uleb128 0
	.uleb128 .LEHB44-.LFB6729
	.uleb128 .LEHE44-.LEHB44
	.uleb128 .L215-.LFB6729
	.uleb128 0
	.uleb128 .LEHB45-.LFB6729
	.uleb128 .LEHE45-.LEHB45
	.uleb128 .L216-.LFB6729
	.uleb128 0
	.uleb128 .LEHB46-.LFB6729
	.uleb128 .LEHE46-.LEHB46
	.uleb128 .L217-.LFB6729
	.uleb128 0
	.uleb128 .LEHB47-.LFB6729
	.uleb128 .LEHE47-.LEHB47
	.uleb128 .L214-.LFB6729
	.uleb128 0
	.uleb128 .LEHB48-.LFB6729
	.uleb128 .LEHE48-.LEHB48
	.uleb128 .L218-.LFB6729
	.uleb128 0x3
	.uleb128 .LEHB49-.LFB6729
	.uleb128 .LEHE49-.LEHB49
	.uleb128 .L219-.LFB6729
	.uleb128 0x3
	.uleb128 .LEHB50-.LFB6729
	.uleb128 .LEHE50-.LEHB50
	.uleb128 .L220-.LFB6729
	.uleb128 0x3
	.uleb128 .LEHB51-.LFB6729
	.uleb128 .LEHE51-.LEHB51
	.uleb128 0
	.uleb128 0
	.uleb128 .LEHB52-.LFB6729
	.uleb128 .LEHE52-.LEHB52
	.uleb128 .L221-.LFB6729
	.uleb128 0
	.uleb128 .LEHB53-.LFB6729
	.uleb128 .LEHE53-.LEHB53
	.uleb128 .L222-.LFB6729
	.uleb128 0
	.uleb128 .LEHB54-.LFB6729
	.uleb128 .LEHE54-.LEHB54
	.uleb128 .L223-.LFB6729
	.uleb128 0
	.uleb128 .LEHB55-.LFB6729
	.uleb128 .LEHE55-.LEHB55
	.uleb128 .L224-.LFB6729
	.uleb128 0
	.uleb128 .LEHB56-.LFB6729
	.uleb128 .LEHE56-.LEHB56
	.uleb128 0
	.uleb128 0
.LLSDACSE6729:
	.byte	0
	.byte	0
	.byte	0x1
	.byte	0x7d
	.align 4
	.long	.LDFCM1-.
.LLSDATT6729:
	.section	.text$_ZN5boost13property_tree10xml_parser17read_xml_internalINS0_11basic_ptreeINSt7__cxx1112basic_stringIcSt11char_traitsIcESaIcEEES9_St4lessIS9_EEEEEvRSt13basic_istreamINT_8key_type10value_typeES6_ISG_EERSE_iRKS9_,"x"
	.linkonce discard
	.seh_endproc
	.section	.text$_ZNK5boost13property_tree11basic_ptreeINSt7__cxx1112basic_stringIcSt11char_traitsIcESaIcEEES7_St4lessIS7_EE9get_childERKNS0_11string_pathIS7_NS0_13id_translatorIS7_EEEE,"x"
	.linkonce discard
	.align 2
	.globl	_ZNK5boost13property_tree11basic_ptreeINSt7__cxx1112basic_stringIcSt11char_traitsIcESaIcEEES7_St4lessIS7_EE9get_childERKNS0_11string_pathIS7_NS0_13id_translatorIS7_EEEE
	.def	_ZNK5boost13property_tree11basic_ptreeINSt7__cxx1112basic_stringIcSt11char_traitsIcESaIcEEES7_St4lessIS7_EE9get_childERKNS0_11string_pathIS7_NS0_13id_translatorIS7_EEEE;	.scl	2;	.type	32;	.endef
	.seh_proc	_ZNK5boost13property_tree11basic_ptreeINSt7__cxx1112basic_stringIcSt11char_traitsIcESaIcEEES7_St4lessIS7_EE9get_childERKNS0_11string_pathIS7_NS0_13id_translatorIS7_EEEE
_ZNK5boost13property_tree11basic_ptreeINSt7__cxx1112basic_stringIcSt11char_traitsIcESaIcEEES7_St4lessIS7_EE9get_childERKNS0_11string_pathIS7_NS0_13id_translatorIS7_EEEE:
.LFB6734:
	pushq	%rbp
	.seh_pushreg	%rbp
	movq	%rsp, %rbp
	.seh_setframe	%rbp, 0
	subq	$32, %rsp
	.seh_stackalloc	32
	.seh_endprologue
	movq	%rcx, 16(%rbp)
	movq	%rdx, 24(%rbp)
	movq	24(%rbp), %rax
	movq	%rax, %rdx
	movq	16(%rbp), %rcx
	call	_ZN5boost13property_tree11basic_ptreeINSt7__cxx1112basic_stringIcSt11char_traitsIcESaIcEEES7_St4lessIS7_EE9get_childERKNS0_11string_pathIS7_NS0_13id_translatorIS7_EEEE
	addq	$32, %rsp
	popq	%rbp
	ret
	.seh_endproc
	.section	.text$_ZNK5boost13property_tree11basic_ptreeINSt7__cxx1112basic_stringIcSt11char_traitsIcESaIcEEES7_St4lessIS7_EE9get_valueIS7_EET_v,"x"
	.linkonce discard
	.align 2
	.globl	_ZNK5boost13property_tree11basic_ptreeINSt7__cxx1112basic_stringIcSt11char_traitsIcESaIcEEES7_St4lessIS7_EE9get_valueIS7_EET_v
	.def	_ZNK5boost13property_tree11basic_ptreeINSt7__cxx1112basic_stringIcSt11char_traitsIcESaIcEEES7_St4lessIS7_EE9get_valueIS7_EET_v;	.scl	2;	.type	32;	.endef
	.seh_proc	_ZNK5boost13property_tree11basic_ptreeINSt7__cxx1112basic_stringIcSt11char_traitsIcESaIcEEES7_St4lessIS7_EE9get_valueIS7_EET_v
_ZNK5boost13property_tree11basic_ptreeINSt7__cxx1112basic_stringIcSt11char_traitsIcESaIcEEES7_St4lessIS7_EE9get_valueIS7_EET_v:
.LFB6735:
	pushq	%rbp
	.seh_pushreg	%rbp
	movq	%rsp, %rbp
	.seh_setframe	%rbp, 0
	subq	$48, %rsp
	.seh_stackalloc	48
	.seh_endprologue
	movq	%rcx, 16(%rbp)
	movq	%rdx, 24(%rbp)
	movq	16(%rbp), %rax
	movq	24(%rbp), %rdx
	movq	%rax, %rcx
	call	_ZNK5boost13property_tree11basic_ptreeINSt7__cxx1112basic_stringIcSt11char_traitsIcESaIcEEES7_St4lessIS7_EE9get_valueIS7_NS0_13id_translatorIS7_EEEENS_9enable_ifINS0_6detail13is_translatorIT0_EET_E4typeESH_
	movq	16(%rbp), %rax
	addq	$48, %rsp
	popq	%rbp
	ret
	.seh_endproc
	.section	.text$_ZN5boost16exception_detail12refcount_ptrINS0_20error_info_containerEE7add_refEv,"x"
	.linkonce discard
	.align 2
	.globl	_ZN5boost16exception_detail12refcount_ptrINS0_20error_info_containerEE7add_refEv
	.def	_ZN5boost16exception_detail12refcount_ptrINS0_20error_info_containerEE7add_refEv;	.scl	2;	.type	32;	.endef
	.seh_proc	_ZN5boost16exception_detail12refcount_ptrINS0_20error_info_containerEE7add_refEv
_ZN5boost16exception_detail12refcount_ptrINS0_20error_info_containerEE7add_refEv:
.LFB6769:
	pushq	%rbp
	.seh_pushreg	%rbp
	movq	%rsp, %rbp
	.seh_setframe	%rbp, 0
	subq	$32, %rsp
	.seh_stackalloc	32
	.seh_endprologue
	movq	%rcx, 16(%rbp)
	movq	16(%rbp), %rax
	movq	(%rax), %rax
	testq	%rax, %rax
	je	.L232
	movq	16(%rbp), %rax
	movq	(%rax), %rax
	movq	16(%rbp), %rdx
	movq	(%rdx), %rdx
	movq	(%rdx), %rdx
	addq	$24, %rdx
	movq	(%rdx), %rdx
	movq	%rax, %rcx
	call	*%rdx
.L232:
	nop
	addq	$32, %rsp
	popq	%rbp
	ret
	.seh_endproc
	.section	.text$_ZN5boost16exception_detail10clone_baseC2Ev,"x"
	.linkonce discard
	.align 2
	.globl	_ZN5boost16exception_detail10clone_baseC2Ev
	.def	_ZN5boost16exception_detail10clone_baseC2Ev;	.scl	2;	.type	32;	.endef
	.seh_proc	_ZN5boost16exception_detail10clone_baseC2Ev
_ZN5boost16exception_detail10clone_baseC2Ev:
.LFB6773:
	pushq	%rbp
	.seh_pushreg	%rbp
	movq	%rsp, %rbp
	.seh_setframe	%rbp, 0
	.seh_endprologue
	movq	%rcx, 16(%rbp)
	leaq	16+_ZTVN5boost16exception_detail10clone_baseE(%rip), %rdx
	movq	16(%rbp), %rax
	movq	%rdx, (%rax)
	nop
	popq	%rbp
	ret
	.seh_endproc
	.section	.text$_ZNSaISt4pairIKNSt7__cxx1112basic_stringIcSt11char_traitsIcESaIcEEEN5boost13property_tree11basic_ptreeIS5_S5_St4lessIS5_EEEEEC1Ev,"x"
	.linkonce discard
	.align 2
	.globl	_ZNSaISt4pairIKNSt7__cxx1112basic_stringIcSt11char_traitsIcESaIcEEEN5boost13property_tree11basic_ptreeIS5_S5_St4lessIS5_EEEEEC1Ev
	.def	_ZNSaISt4pairIKNSt7__cxx1112basic_stringIcSt11char_traitsIcESaIcEEEN5boost13property_tree11basic_ptreeIS5_S5_St4lessIS5_EEEEEC1Ev;	.scl	2;	.type	32;	.endef
	.seh_proc	_ZNSaISt4pairIKNSt7__cxx1112basic_stringIcSt11char_traitsIcESaIcEEEN5boost13property_tree11basic_ptreeIS5_S5_St4lessIS5_EEEEEC1Ev
_ZNSaISt4pairIKNSt7__cxx1112basic_stringIcSt11char_traitsIcESaIcEEEN5boost13property_tree11basic_ptreeIS5_S5_St4lessIS5_EEEEEC1Ev:
.LFB6811:
	pushq	%rbp
	.seh_pushreg	%rbp
	movq	%rsp, %rbp
	.seh_setframe	%rbp, 0
	subq	$32, %rsp
	.seh_stackalloc	32
	.seh_endprologue
	movq	%rcx, 16(%rbp)
	movq	16(%rbp), %rcx
	call	_ZN9__gnu_cxx13new_allocatorISt4pairIKNSt7__cxx1112basic_stringIcSt11char_traitsIcESaIcEEEN5boost13property_tree11basic_ptreeIS7_S7_St4lessIS7_EEEEEC2Ev
	nop
	addq	$32, %rsp
	popq	%rbp
	ret
	.seh_endproc
	.section	.text$_ZNSaISt4pairIKNSt7__cxx1112basic_stringIcSt11char_traitsIcESaIcEEEN5boost13property_tree11basic_ptreeIS5_S5_St4lessIS5_EEEEED1Ev,"x"
	.linkonce discard
	.align 2
	.globl	_ZNSaISt4pairIKNSt7__cxx1112basic_stringIcSt11char_traitsIcESaIcEEEN5boost13property_tree11basic_ptreeIS5_S5_St4lessIS5_EEEEED1Ev
	.def	_ZNSaISt4pairIKNSt7__cxx1112basic_stringIcSt11char_traitsIcESaIcEEEN5boost13property_tree11basic_ptreeIS5_S5_St4lessIS5_EEEEED1Ev;	.scl	2;	.type	32;	.endef
	.seh_proc	_ZNSaISt4pairIKNSt7__cxx1112basic_stringIcSt11char_traitsIcESaIcEEEN5boost13property_tree11basic_ptreeIS5_S5_St4lessIS5_EEEEED1Ev
_ZNSaISt4pairIKNSt7__cxx1112basic_stringIcSt11char_traitsIcESaIcEEEN5boost13property_tree11basic_ptreeIS5_S5_St4lessIS5_EEEEED1Ev:
.LFB6814:
	pushq	%rbp
	.seh_pushreg	%rbp
	movq	%rsp, %rbp
	.seh_setframe	%rbp, 0
	subq	$32, %rsp
	.seh_stackalloc	32
	.seh_endprologue
	movq	%rcx, 16(%rbp)
	movq	16(%rbp), %rcx
	call	_ZN9__gnu_cxx13new_allocatorISt4pairIKNSt7__cxx1112basic_stringIcSt11char_traitsIcESaIcEEEN5boost13property_tree11basic_ptreeIS7_S7_St4lessIS7_EEEEED2Ev
	nop
	addq	$32, %rsp
	popq	%rbp
	ret
	.seh_endproc
	.section	.text$_ZN5boost6tuples4consINS0_9null_typeENS1_INS0_5tupleINS_11multi_index6memberISt4pairIKNSt7__cxx1112basic_stringIcSt11char_traitsIcESaIcEEENS_13property_tree11basic_ptreeISC_SC_St4lessISC_EEEESD_XadL_ZNSJ_5firstEEEEESH_S2_S2_S2_S2_S2_S2_S2_S2_EES2_EEEC1Ev,"x"
	.linkonce discard
	.align 2
	.globl	_ZN5boost6tuples4consINS0_9null_typeENS1_INS0_5tupleINS_11multi_index6memberISt4pairIKNSt7__cxx1112basic_stringIcSt11char_traitsIcESaIcEEENS_13property_tree11basic_ptreeISC_SC_St4lessISC_EEEESD_XadL_ZNSJ_5firstEEEEESH_S2_S2_S2_S2_S2_S2_S2_S2_EES2_EEEC1Ev
	.def	_ZN5boost6tuples4consINS0_9null_typeENS1_INS0_5tupleINS_11multi_index6memberISt4pairIKNSt7__cxx1112basic_stringIcSt11char_traitsIcESaIcEEENS_13property_tree11basic_ptreeISC_SC_St4lessISC_EEEESD_XadL_ZNSJ_5firstEEEEESH_S2_S2_S2_S2_S2_S2_S2_S2_EES2_EEEC1Ev;	.scl	2;	.type	32;	.endef
	.seh_proc	_ZN5boost6tuples4consINS0_9null_typeENS1_INS0_5tupleINS_11multi_index6memberISt4pairIKNSt7__cxx1112basic_stringIcSt11char_traitsIcESaIcEEENS_13property_tree11basic_ptreeISC_SC_St4lessISC_EEEESD_XadL_ZNSJ_5firstEEEEESH_S2_S2_S2_S2_S2_S2_S2_S2_EES2_EEEC1Ev
_ZN5boost6tuples4consINS0_9null_typeENS1_INS0_5tupleINS_11multi_index6memberISt4pairIKNSt7__cxx1112basic_stringIcSt11char_traitsIcESaIcEEENS_13property_tree11basic_ptreeISC_SC_St4lessISC_EEEESD_XadL_ZNSJ_5firstEEEEESH_S2_S2_S2_S2_S2_S2_S2_S2_EES2_EEEC1Ev:
.LFB6817:
	pushq	%rbp
	.seh_pushreg	%rbp
	movq	%rsp, %rbp
	.seh_setframe	%rbp, 0
	subq	$32, %rsp
	.seh_stackalloc	32
	.seh_endprologue
	movq	%rcx, 16(%rbp)
	movq	16(%rbp), %rax
	addq	$1, %rax
	movq	%rax, %rcx
	call	_ZN5boost6tuples4consINS0_5tupleINS_11multi_index6memberISt4pairIKNSt7__cxx1112basic_stringIcSt11char_traitsIcESaIcEEENS_13property_tree11basic_ptreeISB_SB_St4lessISB_EEEESC_XadL_ZNSI_5firstEEEEESG_NS0_9null_typeESK_SK_SK_SK_SK_SK_SK_EESK_EC1Ev
	nop
	addq	$32, %rsp
	popq	%rbp
	ret
	.seh_endproc
	.section	.text$_ZN5boost16base_from_memberISaINS_11multi_index6detail20sequenced_index_nodeINS2_18ordered_index_nodeINS2_19null_augment_policyENS2_15index_node_baseISt4pairIKNSt7__cxx1112basic_stringIcSt11char_traitsIcESaIcEEENS_13property_tree11basic_ptreeISD_SD_St4lessISD_EEEESaISK_EEEEEEEELi0EEC2IJSL_EvEEDpOT_,"x"
	.linkonce discard
	.align 2
	.globl	_ZN5boost16base_from_memberISaINS_11multi_index6detail20sequenced_index_nodeINS2_18ordered_index_nodeINS2_19null_augment_policyENS2_15index_node_baseISt4pairIKNSt7__cxx1112basic_stringIcSt11char_traitsIcESaIcEEENS_13property_tree11basic_ptreeISD_SD_St4lessISD_EEEESaISK_EEEEEEEELi0EEC2IJSL_EvEEDpOT_
	.def	_ZN5boost16base_from_memberISaINS_11multi_index6detail20sequenced_index_nodeINS2_18ordered_index_nodeINS2_19null_augment_policyENS2_15index_node_baseISt4pairIKNSt7__cxx1112basic_stringIcSt11char_traitsIcESaIcEEENS_13property_tree11basic_ptreeISD_SD_St4lessISD_EEEESaISK_EEEEEEEELi0EEC2IJSL_EvEEDpOT_;	.scl	2;	.type	32;	.endef
	.seh_proc	_ZN5boost16base_from_memberISaINS_11multi_index6detail20sequenced_index_nodeINS2_18ordered_index_nodeINS2_19null_augment_policyENS2_15index_node_baseISt4pairIKNSt7__cxx1112basic_stringIcSt11char_traitsIcESaIcEEENS_13property_tree11basic_ptreeISD_SD_St4lessISD_EEEESaISK_EEEEEEEELi0EEC2IJSL_EvEEDpOT_
_ZN5boost16base_from_memberISaINS_11multi_index6detail20sequenced_index_nodeINS2_18ordered_index_nodeINS2_19null_augment_policyENS2_15index_node_baseISt4pairIKNSt7__cxx1112basic_stringIcSt11char_traitsIcESaIcEEENS_13property_tree11basic_ptreeISD_SD_St4lessISD_EEEESaISK_EEEEEEEELi0EEC2IJSL_EvEEDpOT_:
.LFB6819:
	pushq	%rbp
	.seh_pushreg	%rbp
	movq	%rsp, %rbp
	.seh_setframe	%rbp, 0
	subq	$32, %rsp
	.seh_stackalloc	32
	.seh_endprologue
	movq	%rcx, 16(%rbp)
	movq	%rdx, 24(%rbp)
	movq	16(%rbp), %rax
	movq	24(%rbp), %rdx
	movq	%rax, %rcx
	call	_ZNSaIN5boost11multi_index6detail20sequenced_index_nodeINS1_18ordered_index_nodeINS1_19null_augment_policyENS1_15index_node_baseISt4pairIKNSt7__cxx1112basic_stringIcSt11char_traitsIcESaIcEEENS_13property_tree11basic_ptreeISC_SC_St4lessISC_EEEESaISJ_EEEEEEEEC1ISJ_EERKSaIT_E
	nop
	addq	$32, %rsp
	popq	%rbp
	ret
	.seh_endproc
	.section	.text$_ZNSaIN5boost11multi_index6detail20sequenced_index_nodeINS1_18ordered_index_nodeINS1_19null_augment_policyENS1_15index_node_baseISt4pairIKNSt7__cxx1112basic_stringIcSt11char_traitsIcESaIcEEENS_13property_tree11basic_ptreeISC_SC_St4lessISC_EEEESaISJ_EEEEEEEED1Ev,"x"
	.linkonce discard
	.align 2
	.globl	_ZNSaIN5boost11multi_index6detail20sequenced_index_nodeINS1_18ordered_index_nodeINS1_19null_augment_policyENS1_15index_node_baseISt4pairIKNSt7__cxx1112basic_stringIcSt11char_traitsIcESaIcEEENS_13property_tree11basic_ptreeISC_SC_St4lessISC_EEEESaISJ_EEEEEEEED1Ev
	.def	_ZNSaIN5boost11multi_index6detail20sequenced_index_nodeINS1_18ordered_index_nodeINS1_19null_augment_policyENS1_15index_node_baseISt4pairIKNSt7__cxx1112basic_stringIcSt11char_traitsIcESaIcEEENS_13property_tree11basic_ptreeISC_SC_St4lessISC_EEEESaISJ_EEEEEEEED1Ev;	.scl	2;	.type	32;	.endef
	.seh_proc	_ZNSaIN5boost11multi_index6detail20sequenced_index_nodeINS1_18ordered_index_nodeINS1_19null_augment_policyENS1_15index_node_baseISt4pairIKNSt7__cxx1112basic_stringIcSt11char_traitsIcESaIcEEENS_13property_tree11basic_ptreeISC_SC_St4lessISC_EEEESaISJ_EEEEEEEED1Ev
_ZNSaIN5boost11multi_index6detail20sequenced_index_nodeINS1_18ordered_index_nodeINS1_19null_augment_policyENS1_15index_node_baseISt4pairIKNSt7__cxx1112basic_stringIcSt11char_traitsIcESaIcEEENS_13property_tree11basic_ptreeISC_SC_St4lessISC_EEEESaISJ_EEEEEEEED1Ev:
.LFB6823:
	pushq	%rbp
	.seh_pushreg	%rbp
	movq	%rsp, %rbp
	.seh_setframe	%rbp, 0
	subq	$32, %rsp
	.seh_stackalloc	32
	.seh_endprologue
	movq	%rcx, 16(%rbp)
	movq	16(%rbp), %rcx
	call	_ZN9__gnu_cxx13new_allocatorIN5boost11multi_index6detail20sequenced_index_nodeINS3_18ordered_index_nodeINS3_19null_augment_policyENS3_15index_node_baseISt4pairIKNSt7__cxx1112basic_stringIcSt11char_traitsIcESaIcEEENS1_13property_tree11basic_ptreeISE_SE_St4lessISE_EEEESaISL_EEEEEEEED2Ev
	nop
	addq	$32, %rsp
	popq	%rbp
	ret
	.seh_endproc
	.section	.text$_ZN5boost11multi_index6detail13header_holderIPNS1_20sequenced_index_nodeINS1_18ordered_index_nodeINS1_19null_augment_policyENS1_15index_node_baseISt4pairIKNSt7__cxx1112basic_stringIcSt11char_traitsIcESaIcEEENS_13property_tree11basic_ptreeISD_SD_St4lessISD_EEEESaISK_EEEEEEENS0_21multi_index_containerISK_NS0_10indexed_byINS0_9sequencedINS0_3tagIN4mpl_2naESV_SV_SV_SV_SV_SV_SV_SV_SV_SV_SV_SV_SV_SV_SV_SV_SV_SV_SV_EEEENS0_18ordered_non_uniqueINST_INSJ_4subs7by_nameESV_SV_SV_SV_SV_SV_SV_SV_SV_SV_SV_SV_SV_SV_SV_SV_SV_SV_SV_EENS0_6memberISK_SE_XadL_ZNSK_5firstEEEEESI_EESV_SV_SV_SV_SV_SV_SV_SV_SV_SV_SV_SV_SV_SV_SV_SV_SV_SV_EESL_EEEC2Ev,"x"
	.linkonce discard
	.align 2
	.globl	_ZN5boost11multi_index6detail13header_holderIPNS1_20sequenced_index_nodeINS1_18ordered_index_nodeINS1_19null_augment_policyENS1_15index_node_baseISt4pairIKNSt7__cxx1112basic_stringIcSt11char_traitsIcESaIcEEENS_13property_tree11basic_ptreeISD_SD_St4lessISD_EEEESaISK_EEEEEEENS0_21multi_index_containerISK_NS0_10indexed_byINS0_9sequencedINS0_3tagIN4mpl_2naESV_SV_SV_SV_SV_SV_SV_SV_SV_SV_SV_SV_SV_SV_SV_SV_SV_SV_SV_EEEENS0_18ordered_non_uniqueINST_INSJ_4subs7by_nameESV_SV_SV_SV_SV_SV_SV_SV_SV_SV_SV_SV_SV_SV_SV_SV_SV_SV_SV_EENS0_6memberISK_SE_XadL_ZNSK_5firstEEEEESI_EESV_SV_SV_SV_SV_SV_SV_SV_SV_SV_SV_SV_SV_SV_SV_SV_SV_SV_EESL_EEEC2Ev
	.def	_ZN5boost11multi_index6detail13header_holderIPNS1_20sequenced_index_nodeINS1_18ordered_index_nodeINS1_19null_augment_policyENS1_15index_node_baseISt4pairIKNSt7__cxx1112basic_stringIcSt11char_traitsIcESaIcEEENS_13property_tree11basic_ptreeISD_SD_St4lessISD_EEEESaISK_EEEEEEENS0_21multi_index_containerISK_NS0_10indexed_byINS0_9sequencedINS0_3tagIN4mpl_2naESV_SV_SV_SV_SV_SV_SV_SV_SV_SV_SV_SV_SV_SV_SV_SV_SV_SV_SV_EEEENS0_18ordered_non_uniqueINST_INSJ_4subs7by_nameESV_SV_SV_SV_SV_SV_SV_SV_SV_SV_SV_SV_SV_SV_SV_SV_SV_SV_SV_EENS0_6memberISK_SE_XadL_ZNSK_5firstEEEEESI_EESV_SV_SV_SV_SV_SV_SV_SV_SV_SV_SV_SV_SV_SV_SV_SV_SV_SV_EESL_EEEC2Ev;	.scl	2;	.type	32;	.endef
	.seh_proc	_ZN5boost11multi_index6detail13header_holderIPNS1_20sequenced_index_nodeINS1_18ordered_index_nodeINS1_19null_augment_policyENS1_15index_node_baseISt4pairIKNSt7__cxx1112basic_stringIcSt11char_traitsIcESaIcEEENS_13property_tree11basic_ptreeISD_SD_St4lessISD_EEEESaISK_EEEEEEENS0_21multi_index_containerISK_NS0_10indexed_byINS0_9sequencedINS0_3tagIN4mpl_2naESV_SV_SV_SV_SV_SV_SV_SV_SV_SV_SV_SV_SV_SV_SV_SV_SV_SV_SV_EEEENS0_18ordered_non_uniqueINST_INSJ_4subs7by_nameESV_SV_SV_SV_SV_SV_SV_SV_SV_SV_SV_SV_SV_SV_SV_SV_SV_SV_SV_EENS0_6memberISK_SE_XadL_ZNSK_5firstEEEEESI_EESV_SV_SV_SV_SV_SV_SV_SV_SV_SV_SV_SV_SV_SV_SV_SV_SV_SV_EESL_EEEC2Ev
_ZN5boost11multi_index6detail13header_holderIPNS1_20sequenced_index_nodeINS1_18ordered_index_nodeINS1_19null_augment_policyENS1_15index_node_baseISt4pairIKNSt7__cxx1112basic_stringIcSt11char_traitsIcESaIcEEENS_13property_tree11basic_ptreeISD_SD_St4lessISD_EEEESaISK_EEEEEEENS0_21multi_index_containerISK_NS0_10indexed_byINS0_9sequencedINS0_3tagIN4mpl_2naESV_SV_SV_SV_SV_SV_SV_SV_SV_SV_SV_SV_SV_SV_SV_SV_SV_SV_SV_EEEENS0_18ordered_non_uniqueINST_INSJ_4subs7by_nameESV_SV_SV_SV_SV_SV_SV_SV_SV_SV_SV_SV_SV_SV_SV_SV_SV_SV_SV_EENS0_6memberISK_SE_XadL_ZNSK_5firstEEEEESI_EESV_SV_SV_SV_SV_SV_SV_SV_SV_SV_SV_SV_SV_SV_SV_SV_SV_SV_EESL_EEEC2Ev:
.LFB6825:
	pushq	%rbp
	.seh_pushreg	%rbp
	movq	%rsp, %rbp
	.seh_setframe	%rbp, 0
	subq	$32, %rsp
	.seh_stackalloc	32
	.seh_endprologue
	movq	%rcx, 16(%rbp)
	movq	16(%rbp), %rcx
	call	_ZN5boost11multi_index6detail13header_holderIPNS1_20sequenced_index_nodeINS1_18ordered_index_nodeINS1_19null_augment_policyENS1_15index_node_baseISt4pairIKNSt7__cxx1112basic_stringIcSt11char_traitsIcESaIcEEENS_13property_tree11basic_ptreeISD_SD_St4lessISD_EEEESaISK_EEEEEEENS0_21multi_index_containerISK_NS0_10indexed_byINS0_9sequencedINS0_3tagIN4mpl_2naESV_SV_SV_SV_SV_SV_SV_SV_SV_SV_SV_SV_SV_SV_SV_SV_SV_SV_SV_EEEENS0_18ordered_non_uniqueINST_INSJ_4subs7by_nameESV_SV_SV_SV_SV_SV_SV_SV_SV_SV_SV_SV_SV_SV_SV_SV_SV_SV_SV_EENS0_6memberISK_SE_XadL_ZNSK_5firstEEEEESI_EESV_SV_SV_SV_SV_SV_SV_SV_SV_SV_SV_SV_SV_SV_SV_SV_SV_SV_EESL_EEE5finalEv
	movq	%rax, %rcx
	call	_ZN5boost11multi_index21multi_index_containerISt4pairIKNSt7__cxx1112basic_stringIcSt11char_traitsIcESaIcEEENS_13property_tree11basic_ptreeIS8_S8_St4lessIS8_EEEENS0_10indexed_byINS0_9sequencedINS0_3tagIN4mpl_2naESK_SK_SK_SK_SK_SK_SK_SK_SK_SK_SK_SK_SK_SK_SK_SK_SK_SK_SK_EEEENS0_18ordered_non_uniqueINSI_INSE_4subs7by_nameESK_SK_SK_SK_SK_SK_SK_SK_SK_SK_SK_SK_SK_SK_SK_SK_SK_SK_SK_EENS0_6memberISF_S9_XadL_ZNSF_5firstEEEEESD_EESK_SK_SK_SK_SK_SK_SK_SK_SK_SK_SK_SK_SK_SK_SK_SK_SK_SK_EESaISF_EE13allocate_nodeEv
	movq	16(%rbp), %rdx
	movq	%rax, (%rdx)
	nop
	addq	$32, %rsp
	popq	%rbp
	ret
	.seh_endproc
	.section	.text$_ZN5boost11multi_index6detail13header_holderIPNS1_20sequenced_index_nodeINS1_18ordered_index_nodeINS1_19null_augment_policyENS1_15index_node_baseISt4pairIKNSt7__cxx1112basic_stringIcSt11char_traitsIcESaIcEEENS_13property_tree11basic_ptreeISD_SD_St4lessISD_EEEESaISK_EEEEEEENS0_21multi_index_containerISK_NS0_10indexed_byINS0_9sequencedINS0_3tagIN4mpl_2naESV_SV_SV_SV_SV_SV_SV_SV_SV_SV_SV_SV_SV_SV_SV_SV_SV_SV_SV_EEEENS0_18ordered_non_uniqueINST_INSJ_4subs7by_nameESV_SV_SV_SV_SV_SV_SV_SV_SV_SV_SV_SV_SV_SV_SV_SV_SV_SV_SV_EENS0_6memberISK_SE_XadL_ZNSK_5firstEEEEESI_EESV_SV_SV_SV_SV_SV_SV_SV_SV_SV_SV_SV_SV_SV_SV_SV_SV_SV_EESL_EEED2Ev,"x"
	.linkonce discard
	.align 2
	.globl	_ZN5boost11multi_index6detail13header_holderIPNS1_20sequenced_index_nodeINS1_18ordered_index_nodeINS1_19null_augment_policyENS1_15index_node_baseISt4pairIKNSt7__cxx1112basic_stringIcSt11char_traitsIcESaIcEEENS_13property_tree11basic_ptreeISD_SD_St4lessISD_EEEESaISK_EEEEEEENS0_21multi_index_containerISK_NS0_10indexed_byINS0_9sequencedINS0_3tagIN4mpl_2naESV_SV_SV_SV_SV_SV_SV_SV_SV_SV_SV_SV_SV_SV_SV_SV_SV_SV_SV_EEEENS0_18ordered_non_uniqueINST_INSJ_4subs7by_nameESV_SV_SV_SV_SV_SV_SV_SV_SV_SV_SV_SV_SV_SV_SV_SV_SV_SV_SV_EENS0_6memberISK_SE_XadL_ZNSK_5firstEEEEESI_EESV_SV_SV_SV_SV_SV_SV_SV_SV_SV_SV_SV_SV_SV_SV_SV_SV_SV_EESL_EEED2Ev
	.def	_ZN5boost11multi_index6detail13header_holderIPNS1_20sequenced_index_nodeINS1_18ordered_index_nodeINS1_19null_augment_policyENS1_15index_node_baseISt4pairIKNSt7__cxx1112basic_stringIcSt11char_traitsIcESaIcEEENS_13property_tree11basic_ptreeISD_SD_St4lessISD_EEEESaISK_EEEEEEENS0_21multi_index_containerISK_NS0_10indexed_byINS0_9sequencedINS0_3tagIN4mpl_2naESV_SV_SV_SV_SV_SV_SV_SV_SV_SV_SV_SV_SV_SV_SV_SV_SV_SV_SV_EEEENS0_18ordered_non_uniqueINST_INSJ_4subs7by_nameESV_SV_SV_SV_SV_SV_SV_SV_SV_SV_SV_SV_SV_SV_SV_SV_SV_SV_SV_EENS0_6memberISK_SE_XadL_ZNSK_5firstEEEEESI_EESV_SV_SV_SV_SV_SV_SV_SV_SV_SV_SV_SV_SV_SV_SV_SV_SV_SV_EESL_EEED2Ev;	.scl	2;	.type	32;	.endef
	.seh_proc	_ZN5boost11multi_index6detail13header_holderIPNS1_20sequenced_index_nodeINS1_18ordered_index_nodeINS1_19null_augment_policyENS1_15index_node_baseISt4pairIKNSt7__cxx1112basic_stringIcSt11char_traitsIcESaIcEEENS_13property_tree11basic_ptreeISD_SD_St4lessISD_EEEESaISK_EEEEEEENS0_21multi_index_containerISK_NS0_10indexed_byINS0_9sequencedINS0_3tagIN4mpl_2naESV_SV_SV_SV_SV_SV_SV_SV_SV_SV_SV_SV_SV_SV_SV_SV_SV_SV_SV_EEEENS0_18ordered_non_uniqueINST_INSJ_4subs7by_nameESV_SV_SV_SV_SV_SV_SV_SV_SV_SV_SV_SV_SV_SV_SV_SV_SV_SV_SV_EENS0_6memberISK_SE_XadL_ZNSK_5firstEEEEESI_EESV_SV_SV_SV_SV_SV_SV_SV_SV_SV_SV_SV_SV_SV_SV_SV_SV_SV_EESL_EEED2Ev
_ZN5boost11multi_index6detail13header_holderIPNS1_20sequenced_index_nodeINS1_18ordered_index_nodeINS1_19null_augment_policyENS1_15index_node_baseISt4pairIKNSt7__cxx1112basic_stringIcSt11char_traitsIcESaIcEEENS_13property_tree11basic_ptreeISD_SD_St4lessISD_EEEESaISK_EEEEEEENS0_21multi_index_containerISK_NS0_10indexed_byINS0_9sequencedINS0_3tagIN4mpl_2naESV_SV_SV_SV_SV_SV_SV_SV_SV_SV_SV_SV_SV_SV_SV_SV_SV_SV_SV_EEEENS0_18ordered_non_uniqueINST_INSJ_4subs7by_nameESV_SV_SV_SV_SV_SV_SV_SV_SV_SV_SV_SV_SV_SV_SV_SV_SV_SV_SV_EENS0_6memberISK_SE_XadL_ZNSK_5firstEEEEESI_EESV_SV_SV_SV_SV_SV_SV_SV_SV_SV_SV_SV_SV_SV_SV_SV_SV_SV_EESL_EEED2Ev:
.LFB6828:
	pushq	%rbp
	.seh_pushreg	%rbp
	movq	%rsp, %rbp
	.seh_setframe	%rbp, 0
	subq	$32, %rsp
	.seh_stackalloc	32
	.seh_endprologue
	movq	%rcx, 16(%rbp)
	movq	16(%rbp), %rcx
	call	_ZN5boost11multi_index6detail13header_holderIPNS1_20sequenced_index_nodeINS1_18ordered_index_nodeINS1_19null_augment_policyENS1_15index_node_baseISt4pairIKNSt7__cxx1112basic_stringIcSt11char_traitsIcESaIcEEENS_13property_tree11basic_ptreeISD_SD_St4lessISD_EEEESaISK_EEEEEEENS0_21multi_index_containerISK_NS0_10indexed_byINS0_9sequencedINS0_3tagIN4mpl_2naESV_SV_SV_SV_SV_SV_SV_SV_SV_SV_SV_SV_SV_SV_SV_SV_SV_SV_SV_EEEENS0_18ordered_non_uniqueINST_INSJ_4subs7by_nameESV_SV_SV_SV_SV_SV_SV_SV_SV_SV_SV_SV_SV_SV_SV_SV_SV_SV_SV_EENS0_6memberISK_SE_XadL_ZNSK_5firstEEEEESI_EESV_SV_SV_SV_SV_SV_SV_SV_SV_SV_SV_SV_SV_SV_SV_SV_SV_SV_EESL_EEE5finalEv
	movq	%rax, %rcx
	movq	16(%rbp), %rax
	movq	(%rax), %rax
	movq	%rax, %rdx
	call	_ZN5boost11multi_index21multi_index_containerISt4pairIKNSt7__cxx1112basic_stringIcSt11char_traitsIcESaIcEEENS_13property_tree11basic_ptreeIS8_S8_St4lessIS8_EEEENS0_10indexed_byINS0_9sequencedINS0_3tagIN4mpl_2naESK_SK_SK_SK_SK_SK_SK_SK_SK_SK_SK_SK_SK_SK_SK_SK_SK_SK_SK_EEEENS0_18ordered_non_uniqueINSI_INSE_4subs7by_nameESK_SK_SK_SK_SK_SK_SK_SK_SK_SK_SK_SK_SK_SK_SK_SK_SK_SK_SK_EENS0_6memberISF_S9_XadL_ZNSF_5firstEEEEESD_EESK_SK_SK_SK_SK_SK_SK_SK_SK_SK_SK_SK_SK_SK_SK_SK_SK_SK_EESaISF_EE15deallocate_nodeEPNS0_6detail20sequenced_index_nodeINSX_18ordered_index_nodeINSX_19null_augment_policyENSX_15index_node_baseISF_SV_EEEEEE
	nop
	addq	$32, %rsp
	popq	%rbp
	ret
	.seh_handler	__gxx_personality_seh0, @unwind, @except
	.seh_handlerdata
.LLSDA6828:
	.byte	0xff
	.byte	0xff
	.byte	0x1
	.uleb128 .LLSDACSE6828-.LLSDACSB6828
.LLSDACSB6828:
.LLSDACSE6828:
	.section	.text$_ZN5boost11multi_index6detail13header_holderIPNS1_20sequenced_index_nodeINS1_18ordered_index_nodeINS1_19null_augment_policyENS1_15index_node_baseISt4pairIKNSt7__cxx1112basic_stringIcSt11char_traitsIcESaIcEEENS_13property_tree11basic_ptreeISD_SD_St4lessISD_EEEESaISK_EEEEEEENS0_21multi_index_containerISK_NS0_10indexed_byINS0_9sequencedINS0_3tagIN4mpl_2naESV_SV_SV_SV_SV_SV_SV_SV_SV_SV_SV_SV_SV_SV_SV_SV_SV_SV_SV_EEEENS0_18ordered_non_uniqueINST_INSJ_4subs7by_nameESV_SV_SV_SV_SV_SV_SV_SV_SV_SV_SV_SV_SV_SV_SV_SV_SV_SV_SV_EENS0_6memberISK_SE_XadL_ZNSK_5firstEEEEESI_EESV_SV_SV_SV_SV_SV_SV_SV_SV_SV_SV_SV_SV_SV_SV_SV_SV_SV_EESL_EEED2Ev,"x"
	.linkonce discard
	.seh_endproc
	.section	.text$_ZNSaISt4pairIKNSt7__cxx1112basic_stringIcSt11char_traitsIcESaIcEEEN5boost13property_tree11basic_ptreeIS5_S5_St4lessIS5_EEEEEC1INS7_11multi_index6detail20sequenced_index_nodeINSH_18ordered_index_nodeINSH_19null_augment_policyENSH_15index_node_baseISD_SE_EEEEEEEERKSaIT_E,"x"
	.linkonce discard
	.align 2
	.globl	_ZNSaISt4pairIKNSt7__cxx1112basic_stringIcSt11char_traitsIcESaIcEEEN5boost13property_tree11basic_ptreeIS5_S5_St4lessIS5_EEEEEC1INS7_11multi_index6detail20sequenced_index_nodeINSH_18ordered_index_nodeINSH_19null_augment_policyENSH_15index_node_baseISD_SE_EEEEEEEERKSaIT_E
	.def	_ZNSaISt4pairIKNSt7__cxx1112basic_stringIcSt11char_traitsIcESaIcEEEN5boost13property_tree11basic_ptreeIS5_S5_St4lessIS5_EEEEEC1INS7_11multi_index6detail20sequenced_index_nodeINSH_18ordered_index_nodeINSH_19null_augment_policyENSH_15index_node_baseISD_SE_EEEEEEEERKSaIT_E;	.scl	2;	.type	32;	.endef
	.seh_proc	_ZNSaISt4pairIKNSt7__cxx1112basic_stringIcSt11char_traitsIcESaIcEEEN5boost13property_tree11basic_ptreeIS5_S5_St4lessIS5_EEEEEC1INS7_11multi_index6detail20sequenced_index_nodeINSH_18ordered_index_nodeINSH_19null_augment_policyENSH_15index_node_baseISD_SE_EEEEEEEERKSaIT_E
_ZNSaISt4pairIKNSt7__cxx1112basic_stringIcSt11char_traitsIcESaIcEEEN5boost13property_tree11basic_ptreeIS5_S5_St4lessIS5_EEEEEC1INS7_11multi_index6detail20sequenced_index_nodeINSH_18ordered_index_nodeINSH_19null_augment_policyENSH_15index_node_baseISD_SE_EEEEEEEERKSaIT_E:
.LFB6832:
	pushq	%rbp
	.seh_pushreg	%rbp
	movq	%rsp, %rbp
	.seh_setframe	%rbp, 0
	subq	$32, %rsp
	.seh_stackalloc	32
	.seh_endprologue
	movq	%rcx, 16(%rbp)
	movq	%rdx, 24(%rbp)
	movq	16(%rbp), %rcx
	call	_ZN9__gnu_cxx13new_allocatorISt4pairIKNSt7__cxx1112basic_stringIcSt11char_traitsIcESaIcEEEN5boost13property_tree11basic_ptreeIS7_S7_St4lessIS7_EEEEEC2Ev
	nop
	addq	$32, %rsp
	popq	%rbp
	ret
	.seh_endproc
	.section	.text$_ZN5boost11multi_index6detail13ordered_indexINS0_6memberISt4pairIKNSt7__cxx1112basic_stringIcSt11char_traitsIcESaIcEEENS_13property_tree11basic_ptreeISA_SA_St4lessISA_EEEESB_XadL_ZNSH_5firstEEEEESF_NS1_9nth_layerILi2ESH_NS0_10indexed_byINS0_9sequencedINS0_3tagIN4mpl_2naESO_SO_SO_SO_SO_SO_SO_SO_SO_SO_SO_SO_SO_SO_SO_SO_SO_SO_SO_EEEENS0_18ordered_non_uniqueINSM_INSG_4subs7by_nameESO_SO_SO_SO_SO_SO_SO_SO_SO_SO_SO_SO_SO_SO_SO_SO_SO_SO_SO_EESI_SF_EESO_SO_SO_SO_SO_SO_SO_SO_SO_SO_SO_SO_SO_SO_SO_SO_SO_SO_EESaISH_EEENS_3mpl6v_itemIST_NSZ_7vector0ISO_EELi0EEENS1_22ordered_non_unique_tagENS1_19null_augment_policyEED2Ev,"x"
	.linkonce discard
	.align 2
	.globl	_ZN5boost11multi_index6detail13ordered_indexINS0_6memberISt4pairIKNSt7__cxx1112basic_stringIcSt11char_traitsIcESaIcEEENS_13property_tree11basic_ptreeISA_SA_St4lessISA_EEEESB_XadL_ZNSH_5firstEEEEESF_NS1_9nth_layerILi2ESH_NS0_10indexed_byINS0_9sequencedINS0_3tagIN4mpl_2naESO_SO_SO_SO_SO_SO_SO_SO_SO_SO_SO_SO_SO_SO_SO_SO_SO_SO_SO_EEEENS0_18ordered_non_uniqueINSM_INSG_4subs7by_nameESO_SO_SO_SO_SO_SO_SO_SO_SO_SO_SO_SO_SO_SO_SO_SO_SO_SO_SO_EESI_SF_EESO_SO_SO_SO_SO_SO_SO_SO_SO_SO_SO_SO_SO_SO_SO_SO_SO_SO_EESaISH_EEENS_3mpl6v_itemIST_NSZ_7vector0ISO_EELi0EEENS1_22ordered_non_unique_tagENS1_19null_augment_policyEED2Ev
	.def	_ZN5boost11multi_index6detail13ordered_indexINS0_6memberISt4pairIKNSt7__cxx1112basic_stringIcSt11char_traitsIcESaIcEEENS_13property_tree11basic_ptreeISA_SA_St4lessISA_EEEESB_XadL_ZNSH_5firstEEEEESF_NS1_9nth_layerILi2ESH_NS0_10indexed_byINS0_9sequencedINS0_3tagIN4mpl_2naESO_SO_SO_SO_SO_SO_SO_SO_SO_SO_SO_SO_SO_SO_SO_SO_SO_SO_SO_EEEENS0_18ordered_non_uniqueINSM_INSG_4subs7by_nameESO_SO_SO_SO_SO_SO_SO_SO_SO_SO_SO_SO_SO_SO_SO_SO_SO_SO_SO_EESI_SF_EESO_SO_SO_SO_SO_SO_SO_SO_SO_SO_SO_SO_SO_SO_SO_SO_SO_SO_EESaISH_EEENS_3mpl6v_itemIST_NSZ_7vector0ISO_EELi0EEENS1_22ordered_non_unique_tagENS1_19null_augment_policyEED2Ev;	.scl	2;	.type	32;	.endef
	.seh_proc	_ZN5boost11multi_index6detail13ordered_indexINS0_6memberISt4pairIKNSt7__cxx1112basic_stringIcSt11char_traitsIcESaIcEEENS_13property_tree11basic_ptreeISA_SA_St4lessISA_EEEESB_XadL_ZNSH_5firstEEEEESF_NS1_9nth_layerILi2ESH_NS0_10indexed_byINS0_9sequencedINS0_3tagIN4mpl_2naESO_SO_SO_SO_SO_SO_SO_SO_SO_SO_SO_SO_SO_SO_SO_SO_SO_SO_SO_EEEENS0_18ordered_non_uniqueINSM_INSG_4subs7by_nameESO_SO_SO_SO_SO_SO_SO_SO_SO_SO_SO_SO_SO_SO_SO_SO_SO_SO_SO_EESI_SF_EESO_SO_SO_SO_SO_SO_SO_SO_SO_SO_SO_SO_SO_SO_SO_SO_SO_SO_EESaISH_EEENS_3mpl6v_itemIST_NSZ_7vector0ISO_EELi0EEENS1_22ordered_non_unique_tagENS1_19null_augment_policyEED2Ev
_ZN5boost11multi_index6detail13ordered_indexINS0_6memberISt4pairIKNSt7__cxx1112basic_stringIcSt11char_traitsIcESaIcEEENS_13property_tree11basic_ptreeISA_SA_St4lessISA_EEEESB_XadL_ZNSH_5firstEEEEESF_NS1_9nth_layerILi2ESH_NS0_10indexed_byINS0_9sequencedINS0_3tagIN4mpl_2naESO_SO_SO_SO_SO_SO_SO_SO_SO_SO_SO_SO_SO_SO_SO_SO_SO_SO_SO_EEEENS0_18ordered_non_uniqueINSM_INSG_4subs7by_nameESO_SO_SO_SO_SO_SO_SO_SO_SO_SO_SO_SO_SO_SO_SO_SO_SO_SO_SO_EESI_SF_EESO_SO_SO_SO_SO_SO_SO_SO_SO_SO_SO_SO_SO_SO_SO_SO_SO_SO_EESaISH_EEENS_3mpl6v_itemIST_NSZ_7vector0ISO_EELi0EEENS1_22ordered_non_unique_tagENS1_19null_augment_policyEED2Ev:
.LFB6835:
	pushq	%rbp
	.seh_pushreg	%rbp
	movq	%rsp, %rbp
	.seh_setframe	%rbp, 0
	subq	$32, %rsp
	.seh_stackalloc	32
	.seh_endprologue
	movq	%rcx, 16(%rbp)
	movq	16(%rbp), %rax
	movq	%rax, %rcx
	call	_ZN5boost11multi_index6detail18ordered_index_implINS0_6memberISt4pairIKNSt7__cxx1112basic_stringIcSt11char_traitsIcESaIcEEENS_13property_tree11basic_ptreeISA_SA_St4lessISA_EEEESB_XadL_ZNSH_5firstEEEEESF_NS1_9nth_layerILi2ESH_NS0_10indexed_byINS0_9sequencedINS0_3tagIN4mpl_2naESO_SO_SO_SO_SO_SO_SO_SO_SO_SO_SO_SO_SO_SO_SO_SO_SO_SO_SO_EEEENS0_18ordered_non_uniqueINSM_INSG_4subs7by_nameESO_SO_SO_SO_SO_SO_SO_SO_SO_SO_SO_SO_SO_SO_SO_SO_SO_SO_SO_EESI_SF_EESO_SO_SO_SO_SO_SO_SO_SO_SO_SO_SO_SO_SO_SO_SO_SO_SO_SO_EESaISH_EEENS_3mpl6v_itemIST_NSZ_7vector0ISO_EELi0EEENS1_22ordered_non_unique_tagENS1_19null_augment_policyEED2Ev
	nop
	addq	$32, %rsp
	popq	%rbp
	ret
	.seh_endproc
	.section	.text$_ZN5boost11multi_index6detail15sequenced_indexINS1_9nth_layerILi1ESt4pairIKNSt7__cxx1112basic_stringIcSt11char_traitsIcESaIcEEENS_13property_tree11basic_ptreeISA_SA_St4lessISA_EEEENS0_10indexed_byINS0_9sequencedINS0_3tagIN4mpl_2naESM_SM_SM_SM_SM_SM_SM_SM_SM_SM_SM_SM_SM_SM_SM_SM_SM_SM_SM_EEEENS0_18ordered_non_uniqueINSK_INSG_4subs7by_nameESM_SM_SM_SM_SM_SM_SM_SM_SM_SM_SM_SM_SM_SM_SM_SM_SM_SM_SM_EENS0_6memberISH_SB_XadL_ZNSH_5firstEEEEESF_EESM_SM_SM_SM_SM_SM_SM_SM_SM_SM_SM_SM_SM_SM_SM_SM_SM_SM_EESaISH_EEENS_3mpl7vector0ISM_EEEC2ERKNS_6tuples4consINS13_9null_typeENS14_INS13_5tupleISU_SF_S15_S15_S15_S15_S15_S15_S15_S15_EES15_EEEERKSX_,"x"
	.linkonce discard
	.align 2
	.globl	_ZN5boost11multi_index6detail15sequenced_indexINS1_9nth_layerILi1ESt4pairIKNSt7__cxx1112basic_stringIcSt11char_traitsIcESaIcEEENS_13property_tree11basic_ptreeISA_SA_St4lessISA_EEEENS0_10indexed_byINS0_9sequencedINS0_3tagIN4mpl_2naESM_SM_SM_SM_SM_SM_SM_SM_SM_SM_SM_SM_SM_SM_SM_SM_SM_SM_SM_EEEENS0_18ordered_non_uniqueINSK_INSG_4subs7by_nameESM_SM_SM_SM_SM_SM_SM_SM_SM_SM_SM_SM_SM_SM_SM_SM_SM_SM_SM_EENS0_6memberISH_SB_XadL_ZNSH_5firstEEEEESF_EESM_SM_SM_SM_SM_SM_SM_SM_SM_SM_SM_SM_SM_SM_SM_SM_SM_SM_EESaISH_EEENS_3mpl7vector0ISM_EEEC2ERKNS_6tuples4consINS13_9null_typeENS14_INS13_5tupleISU_SF_S15_S15_S15_S15_S15_S15_S15_S15_EES15_EEEERKSX_
	.def	_ZN5boost11multi_index6detail15sequenced_indexINS1_9nth_layerILi1ESt4pairIKNSt7__cxx1112basic_stringIcSt11char_traitsIcESaIcEEENS_13property_tree11basic_ptreeISA_SA_St4lessISA_EEEENS0_10indexed_byINS0_9sequencedINS0_3tagIN4mpl_2naESM_SM_SM_SM_SM_SM_SM_SM_SM_SM_SM_SM_SM_SM_SM_SM_SM_SM_SM_EEEENS0_18ordered_non_uniqueINSK_INSG_4subs7by_nameESM_SM_SM_SM_SM_SM_SM_SM_SM_SM_SM_SM_SM_SM_SM_SM_SM_SM_SM_EENS0_6memberISH_SB_XadL_ZNSH_5firstEEEEESF_EESM_SM_SM_SM_SM_SM_SM_SM_SM_SM_SM_SM_SM_SM_SM_SM_SM_SM_EESaISH_EEENS_3mpl7vector0ISM_EEEC2ERKNS_6tuples4consINS13_9null_typeENS14_INS13_5tupleISU_SF_S15_S15_S15_S15_S15_S15_S15_S15_EES15_EEEERKSX_;	.scl	2;	.type	32;	.endef
	.seh_proc	_ZN5boost11multi_index6detail15sequenced_indexINS1_9nth_layerILi1ESt4pairIKNSt7__cxx1112basic_stringIcSt11char_traitsIcESaIcEEENS_13property_tree11basic_ptreeISA_SA_St4lessISA_EEEENS0_10indexed_byINS0_9sequencedINS0_3tagIN4mpl_2naESM_SM_SM_SM_SM_SM_SM_SM_SM_SM_SM_SM_SM_SM_SM_SM_SM_SM_SM_EEEENS0_18ordered_non_uniqueINSK_INSG_4subs7by_nameESM_SM_SM_SM_SM_SM_SM_SM_SM_SM_SM_SM_SM_SM_SM_SM_SM_SM_SM_EENS0_6memberISH_SB_XadL_ZNSH_5firstEEEEESF_EESM_SM_SM_SM_SM_SM_SM_SM_SM_SM_SM_SM_SM_SM_SM_SM_SM_SM_EESaISH_EEENS_3mpl7vector0ISM_EEEC2ERKNS_6tuples4consINS13_9null_typeENS14_INS13_5tupleISU_SF_S15_S15_S15_S15_S15_S15_S15_S15_EES15_EEEERKSX_
_ZN5boost11multi_index6detail15sequenced_indexINS1_9nth_layerILi1ESt4pairIKNSt7__cxx1112basic_stringIcSt11char_traitsIcESaIcEEENS_13property_tree11basic_ptreeISA_SA_St4lessISA_EEEENS0_10indexed_byINS0_9sequencedINS0_3tagIN4mpl_2naESM_SM_SM_SM_SM_SM_SM_SM_SM_SM_SM_SM_SM_SM_SM_SM_SM_SM_SM_EEEENS0_18ordered_non_uniqueINSK_INSG_4subs7by_nameESM_SM_SM_SM_SM_SM_SM_SM_SM_SM_SM_SM_SM_SM_SM_SM_SM_SM_SM_EENS0_6memberISH_SB_XadL_ZNSH_5firstEEEEESF_EESM_SM_SM_SM_SM_SM_SM_SM_SM_SM_SM_SM_SM_SM_SM_SM_SM_SM_EESaISH_EEENS_3mpl7vector0ISM_EEEC2ERKNS_6tuples4consINS13_9null_typeENS14_INS13_5tupleISU_SF_S15_S15_S15_S15_S15_S15_S15_S15_EES15_EEEERKSX_:
.LFB6837:
	pushq	%rbp
	.seh_pushreg	%rbp
	pushq	%rbx
	.seh_pushreg	%rbx
	subq	$40, %rsp
	.seh_stackalloc	40
	leaq	128(%rsp), %rbp
	.seh_setframe	%rbp, 128
	.seh_endprologue
	movq	%rcx, -64(%rbp)
	movq	%rdx, -56(%rbp)
	movq	%r8, -48(%rbp)
	movq	-64(%rbp), %rbx
	movq	-56(%rbp), %rax
	movq	%rax, %rcx
	call	_ZNK5boost6tuples4consINS0_9null_typeENS1_INS0_5tupleINS_11multi_index6memberISt4pairIKNSt7__cxx1112basic_stringIcSt11char_traitsIcESaIcEEENS_13property_tree11basic_ptreeISC_SC_St4lessISC_EEEESD_XadL_ZNSJ_5firstEEEEESH_S2_S2_S2_S2_S2_S2_S2_S2_EES2_EEE8get_tailEv
	movq	-48(%rbp), %rdx
	movq	%rdx, %r8
	movq	%rax, %rdx
	movq	%rbx, %rcx
.LEHB57:
	call	_ZN5boost11multi_index6detail13ordered_indexINS0_6memberISt4pairIKNSt7__cxx1112basic_stringIcSt11char_traitsIcESaIcEEENS_13property_tree11basic_ptreeISA_SA_St4lessISA_EEEESB_XadL_ZNSH_5firstEEEEESF_NS1_9nth_layerILi2ESH_NS0_10indexed_byINS0_9sequencedINS0_3tagIN4mpl_2naESO_SO_SO_SO_SO_SO_SO_SO_SO_SO_SO_SO_SO_SO_SO_SO_SO_SO_SO_EEEENS0_18ordered_non_uniqueINSM_INSG_4subs7by_nameESO_SO_SO_SO_SO_SO_SO_SO_SO_SO_SO_SO_SO_SO_SO_SO_SO_SO_SO_EESI_SF_EESO_SO_SO_SO_SO_SO_SO_SO_SO_SO_SO_SO_SO_SO_SO_SO_SO_SO_EESaISH_EEENS_3mpl6v_itemIST_NSZ_7vector0ISO_EELi0EEENS1_22ordered_non_unique_tagENS1_19null_augment_policyEEC2ERKNS_6tuples4consINS17_5tupleISI_SF_NS17_9null_typeES1A_S1A_S1A_S1A_S1A_S1A_S1A_EES1A_EERKSX_
.LEHE57:
	movq	-64(%rbp), %rcx
.LEHB58:
	call	_ZN5boost11multi_index6detail15sequenced_indexINS1_9nth_layerILi1ESt4pairIKNSt7__cxx1112basic_stringIcSt11char_traitsIcESaIcEEENS_13property_tree11basic_ptreeISA_SA_St4lessISA_EEEENS0_10indexed_byINS0_9sequencedINS0_3tagIN4mpl_2naESM_SM_SM_SM_SM_SM_SM_SM_SM_SM_SM_SM_SM_SM_SM_SM_SM_SM_SM_EEEENS0_18ordered_non_uniqueINSK_INSG_4subs7by_nameESM_SM_SM_SM_SM_SM_SM_SM_SM_SM_SM_SM_SM_SM_SM_SM_SM_SM_SM_EENS0_6memberISH_SB_XadL_ZNSH_5firstEEEEESF_EESM_SM_SM_SM_SM_SM_SM_SM_SM_SM_SM_SM_SM_SM_SM_SM_SM_SM_EESaISH_EEENS_3mpl7vector0ISM_EEE16empty_initializeEv
.LEHE58:
	jmp	.L246
.L245:
	movq	%rax, %rbx
	movq	-64(%rbp), %rax
	movq	%rax, %rcx
	call	_ZN5boost11multi_index6detail13ordered_indexINS0_6memberISt4pairIKNSt7__cxx1112basic_stringIcSt11char_traitsIcESaIcEEENS_13property_tree11basic_ptreeISA_SA_St4lessISA_EEEESB_XadL_ZNSH_5firstEEEEESF_NS1_9nth_layerILi2ESH_NS0_10indexed_byINS0_9sequencedINS0_3tagIN4mpl_2naESO_SO_SO_SO_SO_SO_SO_SO_SO_SO_SO_SO_SO_SO_SO_SO_SO_SO_SO_EEEENS0_18ordered_non_uniqueINSM_INSG_4subs7by_nameESO_SO_SO_SO_SO_SO_SO_SO_SO_SO_SO_SO_SO_SO_SO_SO_SO_SO_SO_EESI_SF_EESO_SO_SO_SO_SO_SO_SO_SO_SO_SO_SO_SO_SO_SO_SO_SO_SO_SO_EESaISH_EEENS_3mpl6v_itemIST_NSZ_7vector0ISO_EELi0EEENS1_22ordered_non_unique_tagENS1_19null_augment_policyEED2Ev
	movq	%rbx, %rax
	movq	%rax, %rcx
.LEHB59:
	call	_Unwind_Resume
	nop
.LEHE59:
.L246:
	addq	$40, %rsp
	popq	%rbx
	popq	%rbp
	ret
	.seh_handler	__gxx_personality_seh0, @unwind, @except
	.seh_handlerdata
.LLSDA6837:
	.byte	0xff
	.byte	0xff
	.byte	0x1
	.uleb128 .LLSDACSE6837-.LLSDACSB6837
.LLSDACSB6837:
	.uleb128 .LEHB57-.LFB6837
	.uleb128 .LEHE57-.LEHB57
	.uleb128 0
	.uleb128 0
	.uleb128 .LEHB58-.LFB6837
	.uleb128 .LEHE58-.LEHB58
	.uleb128 .L245-.LFB6837
	.uleb128 0
	.uleb128 .LEHB59-.LFB6837
	.uleb128 .LEHE59-.LEHB59
	.uleb128 0
	.uleb128 0
.LLSDACSE6837:
	.section	.text$_ZN5boost11multi_index6detail15sequenced_indexINS1_9nth_layerILi1ESt4pairIKNSt7__cxx1112basic_stringIcSt11char_traitsIcESaIcEEENS_13property_tree11basic_ptreeISA_SA_St4lessISA_EEEENS0_10indexed_byINS0_9sequencedINS0_3tagIN4mpl_2naESM_SM_SM_SM_SM_SM_SM_SM_SM_SM_SM_SM_SM_SM_SM_SM_SM_SM_SM_EEEENS0_18ordered_non_uniqueINSK_INSG_4subs7by_nameESM_SM_SM_SM_SM_SM_SM_SM_SM_SM_SM_SM_SM_SM_SM_SM_SM_SM_SM_EENS0_6memberISH_SB_XadL_ZNSH_5firstEEEEESF_EESM_SM_SM_SM_SM_SM_SM_SM_SM_SM_SM_SM_SM_SM_SM_SM_SM_SM_EESaISH_EEENS_3mpl7vector0ISM_EEEC2ERKNS_6tuples4consINS13_9null_typeENS14_INS13_5tupleISU_SF_S15_S15_S15_S15_S15_S15_S15_S15_EES15_EEEERKSX_,"x"
	.linkonce discard
	.seh_endproc
	.section	.text$_ZN5boost11multi_index6detail15sequenced_indexINS1_9nth_layerILi1ESt4pairIKNSt7__cxx1112basic_stringIcSt11char_traitsIcESaIcEEENS_13property_tree11basic_ptreeISA_SA_St4lessISA_EEEENS0_10indexed_byINS0_9sequencedINS0_3tagIN4mpl_2naESM_SM_SM_SM_SM_SM_SM_SM_SM_SM_SM_SM_SM_SM_SM_SM_SM_SM_SM_EEEENS0_18ordered_non_uniqueINSK_INSG_4subs7by_nameESM_SM_SM_SM_SM_SM_SM_SM_SM_SM_SM_SM_SM_SM_SM_SM_SM_SM_SM_EENS0_6memberISH_SB_XadL_ZNSH_5firstEEEEESF_EESM_SM_SM_SM_SM_SM_SM_SM_SM_SM_SM_SM_SM_SM_SM_SM_SM_SM_EESaISH_EEENS_3mpl7vector0ISM_EEED2Ev,"x"
	.linkonce discard
	.align 2
	.globl	_ZN5boost11multi_index6detail15sequenced_indexINS1_9nth_layerILi1ESt4pairIKNSt7__cxx1112basic_stringIcSt11char_traitsIcESaIcEEENS_13property_tree11basic_ptreeISA_SA_St4lessISA_EEEENS0_10indexed_byINS0_9sequencedINS0_3tagIN4mpl_2naESM_SM_SM_SM_SM_SM_SM_SM_SM_SM_SM_SM_SM_SM_SM_SM_SM_SM_SM_EEEENS0_18ordered_non_uniqueINSK_INSG_4subs7by_nameESM_SM_SM_SM_SM_SM_SM_SM_SM_SM_SM_SM_SM_SM_SM_SM_SM_SM_SM_EENS0_6memberISH_SB_XadL_ZNSH_5firstEEEEESF_EESM_SM_SM_SM_SM_SM_SM_SM_SM_SM_SM_SM_SM_SM_SM_SM_SM_SM_EESaISH_EEENS_3mpl7vector0ISM_EEED2Ev
	.def	_ZN5boost11multi_index6detail15sequenced_indexINS1_9nth_layerILi1ESt4pairIKNSt7__cxx1112basic_stringIcSt11char_traitsIcESaIcEEENS_13property_tree11basic_ptreeISA_SA_St4lessISA_EEEENS0_10indexed_byINS0_9sequencedINS0_3tagIN4mpl_2naESM_SM_SM_SM_SM_SM_SM_SM_SM_SM_SM_SM_SM_SM_SM_SM_SM_SM_SM_EEEENS0_18ordered_non_uniqueINSK_INSG_4subs7by_nameESM_SM_SM_SM_SM_SM_SM_SM_SM_SM_SM_SM_SM_SM_SM_SM_SM_SM_SM_EENS0_6memberISH_SB_XadL_ZNSH_5firstEEEEESF_EESM_SM_SM_SM_SM_SM_SM_SM_SM_SM_SM_SM_SM_SM_SM_SM_SM_SM_EESaISH_EEENS_3mpl7vector0ISM_EEED2Ev;	.scl	2;	.type	32;	.endef
	.seh_proc	_ZN5boost11multi_index6detail15sequenced_indexINS1_9nth_layerILi1ESt4pairIKNSt7__cxx1112basic_stringIcSt11char_traitsIcESaIcEEENS_13property_tree11basic_ptreeISA_SA_St4lessISA_EEEENS0_10indexed_byINS0_9sequencedINS0_3tagIN4mpl_2naESM_SM_SM_SM_SM_SM_SM_SM_SM_SM_SM_SM_SM_SM_SM_SM_SM_SM_SM_EEEENS0_18ordered_non_uniqueINSK_INSG_4subs7by_nameESM_SM_SM_SM_SM_SM_SM_SM_SM_SM_SM_SM_SM_SM_SM_SM_SM_SM_SM_EENS0_6memberISH_SB_XadL_ZNSH_5firstEEEEESF_EESM_SM_SM_SM_SM_SM_SM_SM_SM_SM_SM_SM_SM_SM_SM_SM_SM_SM_EESaISH_EEENS_3mpl7vector0ISM_EEED2Ev
_ZN5boost11multi_index6detail15sequenced_indexINS1_9nth_layerILi1ESt4pairIKNSt7__cxx1112basic_stringIcSt11char_traitsIcESaIcEEENS_13property_tree11basic_ptreeISA_SA_St4lessISA_EEEENS0_10indexed_byINS0_9sequencedINS0_3tagIN4mpl_2naESM_SM_SM_SM_SM_SM_SM_SM_SM_SM_SM_SM_SM_SM_SM_SM_SM_SM_SM_EEEENS0_18ordered_non_uniqueINSK_INSG_4subs7by_nameESM_SM_SM_SM_SM_SM_SM_SM_SM_SM_SM_SM_SM_SM_SM_SM_SM_SM_SM_EENS0_6memberISH_SB_XadL_ZNSH_5firstEEEEESF_EESM_SM_SM_SM_SM_SM_SM_SM_SM_SM_SM_SM_SM_SM_SM_SM_SM_SM_EESaISH_EEENS_3mpl7vector0ISM_EEED2Ev:
.LFB6840:
	pushq	%rbp
	.seh_pushreg	%rbp
	movq	%rsp, %rbp
	.seh_setframe	%rbp, 0
	subq	$32, %rsp
	.seh_stackalloc	32
	.seh_endprologue
	movq	%rcx, 16(%rbp)
	movq	16(%rbp), %rax
	movq	%rax, %rcx
	call	_ZN5boost11multi_index6detail13ordered_indexINS0_6memberISt4pairIKNSt7__cxx1112basic_stringIcSt11char_traitsIcESaIcEEENS_13property_tree11basic_ptreeISA_SA_St4lessISA_EEEESB_XadL_ZNSH_5firstEEEEESF_NS1_9nth_layerILi2ESH_NS0_10indexed_byINS0_9sequencedINS0_3tagIN4mpl_2naESO_SO_SO_SO_SO_SO_SO_SO_SO_SO_SO_SO_SO_SO_SO_SO_SO_SO_SO_EEEENS0_18ordered_non_uniqueINSM_INSG_4subs7by_nameESO_SO_SO_SO_SO_SO_SO_SO_SO_SO_SO_SO_SO_SO_SO_SO_SO_SO_SO_EESI_SF_EESO_SO_SO_SO_SO_SO_SO_SO_SO_SO_SO_SO_SO_SO_SO_SO_SO_SO_EESaISH_EEENS_3mpl6v_itemIST_NSZ_7vector0ISO_EELi0EEENS1_22ordered_non_unique_tagENS1_19null_augment_policyEED2Ev
	nop
	addq	$32, %rsp
	popq	%rbp
	ret
	.seh_endproc
	.section	.text$_ZN5boost11multi_index21multi_index_containerISt4pairIKNSt7__cxx1112basic_stringIcSt11char_traitsIcESaIcEEENS_13property_tree11basic_ptreeIS8_S8_St4lessIS8_EEEENS0_10indexed_byINS0_9sequencedINS0_3tagIN4mpl_2naESK_SK_SK_SK_SK_SK_SK_SK_SK_SK_SK_SK_SK_SK_SK_SK_SK_SK_SK_EEEENS0_18ordered_non_uniqueINSI_INSE_4subs7by_nameESK_SK_SK_SK_SK_SK_SK_SK_SK_SK_SK_SK_SK_SK_SK_SK_SK_SK_SK_EENS0_6memberISF_S9_XadL_ZNSF_5firstEEEEESD_EESK_SK_SK_SK_SK_SK_SK_SK_SK_SK_SK_SK_SK_SK_SK_SK_SK_SK_EESaISF_EE17delete_all_nodes_Ev,"x"
	.linkonce discard
	.align 2
	.globl	_ZN5boost11multi_index21multi_index_containerISt4pairIKNSt7__cxx1112basic_stringIcSt11char_traitsIcESaIcEEENS_13property_tree11basic_ptreeIS8_S8_St4lessIS8_EEEENS0_10indexed_byINS0_9sequencedINS0_3tagIN4mpl_2naESK_SK_SK_SK_SK_SK_SK_SK_SK_SK_SK_SK_SK_SK_SK_SK_SK_SK_SK_EEEENS0_18ordered_non_uniqueINSI_INSE_4subs7by_nameESK_SK_SK_SK_SK_SK_SK_SK_SK_SK_SK_SK_SK_SK_SK_SK_SK_SK_SK_EENS0_6memberISF_S9_XadL_ZNSF_5firstEEEEESD_EESK_SK_SK_SK_SK_SK_SK_SK_SK_SK_SK_SK_SK_SK_SK_SK_SK_SK_EESaISF_EE17delete_all_nodes_Ev
	.def	_ZN5boost11multi_index21multi_index_containerISt4pairIKNSt7__cxx1112basic_stringIcSt11char_traitsIcESaIcEEENS_13property_tree11basic_ptreeIS8_S8_St4lessIS8_EEEENS0_10indexed_byINS0_9sequencedINS0_3tagIN4mpl_2naESK_SK_SK_SK_SK_SK_SK_SK_SK_SK_SK_SK_SK_SK_SK_SK_SK_SK_SK_EEEENS0_18ordered_non_uniqueINSI_INSE_4subs7by_nameESK_SK_SK_SK_SK_SK_SK_SK_SK_SK_SK_SK_SK_SK_SK_SK_SK_SK_SK_EENS0_6memberISF_S9_XadL_ZNSF_5firstEEEEESD_EESK_SK_SK_SK_SK_SK_SK_SK_SK_SK_SK_SK_SK_SK_SK_SK_SK_SK_EESaISF_EE17delete_all_nodes_Ev;	.scl	2;	.type	32;	.endef
	.seh_proc	_ZN5boost11multi_index21multi_index_containerISt4pairIKNSt7__cxx1112basic_stringIcSt11char_traitsIcESaIcEEENS_13property_tree11basic_ptreeIS8_S8_St4lessIS8_EEEENS0_10indexed_byINS0_9sequencedINS0_3tagIN4mpl_2naESK_SK_SK_SK_SK_SK_SK_SK_SK_SK_SK_SK_SK_SK_SK_SK_SK_SK_SK_EEEENS0_18ordered_non_uniqueINSI_INSE_4subs7by_nameESK_SK_SK_SK_SK_SK_SK_SK_SK_SK_SK_SK_SK_SK_SK_SK_SK_SK_SK_EENS0_6memberISF_S9_XadL_ZNSF_5firstEEEEESD_EESK_SK_SK_SK_SK_SK_SK_SK_SK_SK_SK_SK_SK_SK_SK_SK_SK_SK_EESaISF_EE17delete_all_nodes_Ev
_ZN5boost11multi_index21multi_index_containerISt4pairIKNSt7__cxx1112basic_stringIcSt11char_traitsIcESaIcEEENS_13property_tree11basic_ptreeIS8_S8_St4lessIS8_EEEENS0_10indexed_byINS0_9sequencedINS0_3tagIN4mpl_2naESK_SK_SK_SK_SK_SK_SK_SK_SK_SK_SK_SK_SK_SK_SK_SK_SK_SK_SK_EEEENS0_18ordered_non_uniqueINSI_INSE_4subs7by_nameESK_SK_SK_SK_SK_SK_SK_SK_SK_SK_SK_SK_SK_SK_SK_SK_SK_SK_SK_EENS0_6memberISF_S9_XadL_ZNSF_5firstEEEEESD_EESK_SK_SK_SK_SK_SK_SK_SK_SK_SK_SK_SK_SK_SK_SK_SK_SK_SK_EESaISF_EE17delete_all_nodes_Ev:
.LFB6842:
	pushq	%rbp
	.seh_pushreg	%rbp
	movq	%rsp, %rbp
	.seh_setframe	%rbp, 0
	subq	$32, %rsp
	.seh_stackalloc	32
	.seh_endprologue
	movq	%rcx, 16(%rbp)
	movq	16(%rbp), %rax
	addq	$16, %rax
	movq	%rax, %rcx
	call	_ZN5boost11multi_index6detail15sequenced_indexINS1_9nth_layerILi1ESt4pairIKNSt7__cxx1112basic_stringIcSt11char_traitsIcESaIcEEENS_13property_tree11basic_ptreeISA_SA_St4lessISA_EEEENS0_10indexed_byINS0_9sequencedINS0_3tagIN4mpl_2naESM_SM_SM_SM_SM_SM_SM_SM_SM_SM_SM_SM_SM_SM_SM_SM_SM_SM_SM_EEEENS0_18ordered_non_uniqueINSK_INSG_4subs7by_nameESM_SM_SM_SM_SM_SM_SM_SM_SM_SM_SM_SM_SM_SM_SM_SM_SM_SM_SM_EENS0_6memberISH_SB_XadL_ZNSH_5firstEEEEESF_EESM_SM_SM_SM_SM_SM_SM_SM_SM_SM_SM_SM_SM_SM_SM_SM_SM_SM_EESaISH_EEENS_3mpl7vector0ISM_EEE17delete_all_nodes_Ev
	nop
	addq	$32, %rsp
	popq	%rbp
	ret
	.seh_endproc
	.section	.text$_ZN5boost13property_tree11ptree_errorC2ERKS1_,"x"
	.linkonce discard
	.align 2
	.globl	_ZN5boost13property_tree11ptree_errorC2ERKS1_
	.def	_ZN5boost13property_tree11ptree_errorC2ERKS1_;	.scl	2;	.type	32;	.endef
	.seh_proc	_ZN5boost13property_tree11ptree_errorC2ERKS1_
_ZN5boost13property_tree11ptree_errorC2ERKS1_:
.LFB6854:
	pushq	%rbp
	.seh_pushreg	%rbp
	movq	%rsp, %rbp
	.seh_setframe	%rbp, 0
	subq	$32, %rsp
	.seh_stackalloc	32
	.seh_endprologue
	movq	%rcx, 16(%rbp)
	movq	%rdx, 24(%rbp)
	movq	16(%rbp), %rax
	movq	24(%rbp), %rdx
	movq	%rax, %rcx
	call	_ZNSt13runtime_errorC2ERKS_
	leaq	16+_ZTVN5boost13property_tree11ptree_errorE(%rip), %rdx
	movq	16(%rbp), %rax
	movq	%rdx, (%rax)
	nop
	addq	$32, %rsp
	popq	%rbp
	ret
	.seh_endproc
	.section	.text$_ZN5boost13property_tree17file_parser_errorC2ERKS1_,"x"
	.linkonce discard
	.align 2
	.globl	_ZN5boost13property_tree17file_parser_errorC2ERKS1_
	.def	_ZN5boost13property_tree17file_parser_errorC2ERKS1_;	.scl	2;	.type	32;	.endef
	.seh_proc	_ZN5boost13property_tree17file_parser_errorC2ERKS1_
_ZN5boost13property_tree17file_parser_errorC2ERKS1_:
.LFB6856:
	pushq	%rbp
	.seh_pushreg	%rbp
	pushq	%rbx
	.seh_pushreg	%rbx
	subq	$40, %rsp
	.seh_stackalloc	40
	leaq	128(%rsp), %rbp
	.seh_setframe	%rbp, 128
	.seh_endprologue
	movq	%rcx, -64(%rbp)
	movq	%rdx, -56(%rbp)
	movq	-64(%rbp), %rax
	movq	-56(%rbp), %rdx
	movq	%rax, %rcx
	call	_ZN5boost13property_tree11ptree_errorC2ERKS1_
	leaq	16+_ZTVN5boost13property_tree17file_parser_errorE(%rip), %rdx
	movq	-64(%rbp), %rax
	movq	%rdx, (%rax)
	movq	-64(%rbp), %rax
	addq	$16, %rax
	movq	-56(%rbp), %rdx
	addq	$16, %rdx
	movq	%rax, %rcx
.LEHB60:
	call	_ZNSt7__cxx1112basic_stringIcSt11char_traitsIcESaIcEEC1ERKS4_
.LEHE60:
	movq	-64(%rbp), %rax
	addq	$48, %rax
	movq	-56(%rbp), %rdx
	addq	$48, %rdx
	movq	%rax, %rcx
.LEHB61:
	call	_ZNSt7__cxx1112basic_stringIcSt11char_traitsIcESaIcEEC1ERKS4_
.LEHE61:
	movq	-56(%rbp), %rax
	movl	80(%rax), %edx
	movq	-64(%rbp), %rax
	movl	%edx, 80(%rax)
	jmp	.L255
.L254:
	movq	%rax, %rbx
	movq	-64(%rbp), %rax
	addq	$16, %rax
	movq	%rax, %rcx
	call	_ZNSt7__cxx1112basic_stringIcSt11char_traitsIcESaIcEED1Ev
	jmp	.L252
.L253:
	movq	%rax, %rbx
.L252:
	movq	-64(%rbp), %rax
	movq	%rax, %rcx
	call	_ZN5boost13property_tree11ptree_errorD2Ev
	movq	%rbx, %rax
	movq	%rax, %rcx
.LEHB62:
	call	_Unwind_Resume
	nop
.LEHE62:
.L255:
	addq	$40, %rsp
	popq	%rbx
	popq	%rbp
	ret
	.seh_handler	__gxx_personality_seh0, @unwind, @except
	.seh_handlerdata
.LLSDA6856:
	.byte	0xff
	.byte	0xff
	.byte	0x1
	.uleb128 .LLSDACSE6856-.LLSDACSB6856
.LLSDACSB6856:
	.uleb128 .LEHB60-.LFB6856
	.uleb128 .LEHE60-.LEHB60
	.uleb128 .L253-.LFB6856
	.uleb128 0
	.uleb128 .LEHB61-.LFB6856
	.uleb128 .LEHE61-.LEHB61
	.uleb128 .L254-.LFB6856
	.uleb128 0
	.uleb128 .LEHB62-.LFB6856
	.uleb128 .LEHE62-.LEHB62
	.uleb128 0
	.uleb128 0
.LLSDACSE6856:
	.section	.text$_ZN5boost13property_tree17file_parser_errorC2ERKS1_,"x"
	.linkonce discard
	.seh_endproc
	.section	.text$_ZN5boost13property_tree10xml_parser16xml_parser_errorC2ERKS2_,"x"
	.linkonce discard
	.align 2
	.globl	_ZN5boost13property_tree10xml_parser16xml_parser_errorC2ERKS2_
	.def	_ZN5boost13property_tree10xml_parser16xml_parser_errorC2ERKS2_;	.scl	2;	.type	32;	.endef
	.seh_proc	_ZN5boost13property_tree10xml_parser16xml_parser_errorC2ERKS2_
_ZN5boost13property_tree10xml_parser16xml_parser_errorC2ERKS2_:
.LFB6858:
	pushq	%rbp
	.seh_pushreg	%rbp
	movq	%rsp, %rbp
	.seh_setframe	%rbp, 0
	subq	$32, %rsp
	.seh_stackalloc	32
	.seh_endprologue
	movq	%rcx, 16(%rbp)
	movq	%rdx, 24(%rbp)
	movq	16(%rbp), %rax
	movq	24(%rbp), %rdx
	movq	%rax, %rcx
	call	_ZN5boost13property_tree17file_parser_errorC2ERKS1_
	leaq	16+_ZTVN5boost13property_tree10xml_parser16xml_parser_errorE(%rip), %rdx
	movq	16(%rbp), %rax
	movq	%rdx, (%rax)
	nop
	addq	$32, %rsp
	popq	%rbp
	ret
	.seh_endproc
	.section	.text$_ZN5boost16exception_detail19error_info_injectorINS_13property_tree10xml_parser16xml_parser_errorEEC2ERKS5_,"x"
	.linkonce discard
	.align 2
	.globl	_ZN5boost16exception_detail19error_info_injectorINS_13property_tree10xml_parser16xml_parser_errorEEC2ERKS5_
	.def	_ZN5boost16exception_detail19error_info_injectorINS_13property_tree10xml_parser16xml_parser_errorEEC2ERKS5_;	.scl	2;	.type	32;	.endef
	.seh_proc	_ZN5boost16exception_detail19error_info_injectorINS_13property_tree10xml_parser16xml_parser_errorEEC2ERKS5_
_ZN5boost16exception_detail19error_info_injectorINS_13property_tree10xml_parser16xml_parser_errorEEC2ERKS5_:
.LFB6860:
	pushq	%rbp
	.seh_pushreg	%rbp
	pushq	%rbx
	.seh_pushreg	%rbx
	subq	$40, %rsp
	.seh_stackalloc	40
	leaq	128(%rsp), %rbp
	.seh_setframe	%rbp, 128
	.seh_endprologue
	movq	%rcx, -64(%rbp)
	movq	%rdx, -56(%rbp)
	movq	-64(%rbp), %rax
	movq	-56(%rbp), %rdx
	movq	%rax, %rcx
.LEHB63:
	call	_ZN5boost13property_tree10xml_parser16xml_parser_errorC2ERKS2_
.LEHE63:
	movq	-64(%rbp), %rax
	addq	$88, %rax
	movq	-56(%rbp), %rdx
	addq	$88, %rdx
	movq	%rax, %rcx
.LEHB64:
	call	_ZN5boost9exceptionC2ERKS0_
.LEHE64:
	leaq	16+_ZTVN5boost16exception_detail19error_info_injectorINS_13property_tree10xml_parser16xml_parser_errorEEE(%rip), %rdx
	movq	-64(%rbp), %rax
	movq	%rdx, (%rax)
	leaq	56+_ZTVN5boost16exception_detail19error_info_injectorINS_13property_tree10xml_parser16xml_parser_errorEEE(%rip), %rdx
	movq	-64(%rbp), %rax
	movq	%rdx, 88(%rax)
	jmp	.L260
.L259:
	movq	%rax, %rbx
	movq	-64(%rbp), %rax
	movq	%rax, %rcx
	call	_ZN5boost13property_tree10xml_parser16xml_parser_errorD2Ev
	movq	%rbx, %rax
	movq	%rax, %rcx
.LEHB65:
	call	_Unwind_Resume
	nop
.LEHE65:
.L260:
	addq	$40, %rsp
	popq	%rbx
	popq	%rbp
	ret
	.seh_handler	__gxx_personality_seh0, @unwind, @except
	.seh_handlerdata
.LLSDA6860:
	.byte	0xff
	.byte	0xff
	.byte	0x1
	.uleb128 .LLSDACSE6860-.LLSDACSB6860
.LLSDACSB6860:
	.uleb128 .LEHB63-.LFB6860
	.uleb128 .LEHE63-.LEHB63
	.uleb128 0
	.uleb128 0
	.uleb128 .LEHB64-.LFB6860
	.uleb128 .LEHE64-.LEHB64
	.uleb128 .L259-.LFB6860
	.uleb128 0
	.uleb128 .LEHB65-.LFB6860
	.uleb128 .LEHE65-.LEHB65
	.uleb128 0
	.uleb128 0
.LLSDACSE6860:
	.section	.text$_ZN5boost16exception_detail19error_info_injectorINS_13property_tree10xml_parser16xml_parser_errorEEC2ERKS5_,"x"
	.linkonce discard
	.seh_endproc
	.section	.text$_ZN5boost16exception_detail19error_info_injectorINS_13property_tree10xml_parser16xml_parser_errorEEC1ERKS5_,"x"
	.linkonce discard
	.align 2
	.globl	_ZN5boost16exception_detail19error_info_injectorINS_13property_tree10xml_parser16xml_parser_errorEEC1ERKS5_
	.def	_ZN5boost16exception_detail19error_info_injectorINS_13property_tree10xml_parser16xml_parser_errorEEC1ERKS5_;	.scl	2;	.type	32;	.endef
	.seh_proc	_ZN5boost16exception_detail19error_info_injectorINS_13property_tree10xml_parser16xml_parser_errorEEC1ERKS5_
_ZN5boost16exception_detail19error_info_injectorINS_13property_tree10xml_parser16xml_parser_errorEEC1ERKS5_:
.LFB6861:
	pushq	%rbp
	.seh_pushreg	%rbp
	pushq	%rbx
	.seh_pushreg	%rbx
	subq	$40, %rsp
	.seh_stackalloc	40
	leaq	128(%rsp), %rbp
	.seh_setframe	%rbp, 128
	.seh_endprologue
	movq	%rcx, -64(%rbp)
	movq	%rdx, -56(%rbp)
	movq	-64(%rbp), %rax
	movq	-56(%rbp), %rdx
	movq	%rax, %rcx
.LEHB66:
	call	_ZN5boost13property_tree10xml_parser16xml_parser_errorC2ERKS2_
.LEHE66:
	movq	-64(%rbp), %rax
	addq	$88, %rax
	movq	-56(%rbp), %rdx
	addq	$88, %rdx
	movq	%rax, %rcx
.LEHB67:
	call	_ZN5boost9exceptionC2ERKS0_
.LEHE67:
	leaq	16+_ZTVN5boost16exception_detail19error_info_injectorINS_13property_tree10xml_parser16xml_parser_errorEEE(%rip), %rdx
	movq	-64(%rbp), %rax
	movq	%rdx, (%rax)
	leaq	56+_ZTVN5boost16exception_detail19error_info_injectorINS_13property_tree10xml_parser16xml_parser_errorEEE(%rip), %rdx
	movq	-64(%rbp), %rax
	movq	%rdx, 88(%rax)
	jmp	.L264
.L263:
	movq	%rax, %rbx
	movq	-64(%rbp), %rax
	movq	%rax, %rcx
	call	_ZN5boost13property_tree10xml_parser16xml_parser_errorD2Ev
	movq	%rbx, %rax
	movq	%rax, %rcx
.LEHB68:
	call	_Unwind_Resume
	nop
.LEHE68:
.L264:
	addq	$40, %rsp
	popq	%rbx
	popq	%rbp
	ret
	.seh_handler	__gxx_personality_seh0, @unwind, @except
	.seh_handlerdata
.LLSDA6861:
	.byte	0xff
	.byte	0xff
	.byte	0x1
	.uleb128 .LLSDACSE6861-.LLSDACSB6861
.LLSDACSB6861:
	.uleb128 .LEHB66-.LFB6861
	.uleb128 .LEHE66-.LEHB66
	.uleb128 0
	.uleb128 0
	.uleb128 .LEHB67-.LFB6861
	.uleb128 .LEHE67-.LEHB67
	.uleb128 .L263-.LFB6861
	.uleb128 0
	.uleb128 .LEHB68-.LFB6861
	.uleb128 .LEHE68-.LEHB68
	.uleb128 0
	.uleb128 0
.LLSDACSE6861:
	.section	.text$_ZN5boost16exception_detail19error_info_injectorINS_13property_tree10xml_parser16xml_parser_errorEEC1ERKS5_,"x"
	.linkonce discard
	.seh_endproc
	.section	.text$_ZN5boost17enable_error_infoINS_13property_tree10xml_parser16xml_parser_errorEEENS_16exception_detail29enable_error_info_return_typeIT_E4typeERKS6_,"x"
	.linkonce discard
	.globl	_ZN5boost17enable_error_infoINS_13property_tree10xml_parser16xml_parser_errorEEENS_16exception_detail29enable_error_info_return_typeIT_E4typeERKS6_
	.def	_ZN5boost17enable_error_infoINS_13property_tree10xml_parser16xml_parser_errorEEENS_16exception_detail29enable_error_info_return_typeIT_E4typeERKS6_;	.scl	2;	.type	32;	.endef
	.seh_proc	_ZN5boost17enable_error_infoINS_13property_tree10xml_parser16xml_parser_errorEEENS_16exception_detail29enable_error_info_return_typeIT_E4typeERKS6_
_ZN5boost17enable_error_infoINS_13property_tree10xml_parser16xml_parser_errorEEENS_16exception_detail29enable_error_info_return_typeIT_E4typeERKS6_:
.LFB6849:
	pushq	%rbp
	.seh_pushreg	%rbp
	movq	%rsp, %rbp
	.seh_setframe	%rbp, 0
	subq	$32, %rsp
	.seh_stackalloc	32
	.seh_endprologue
	movq	%rcx, 16(%rbp)
	movq	%rdx, 24(%rbp)
	movq	24(%rbp), %rax
	movq	%rax, %rdx
	movq	16(%rbp), %rcx
	call	_ZN5boost16exception_detail19error_info_injectorINS_13property_tree10xml_parser16xml_parser_errorEEC1ERKS4_
	movq	16(%rbp), %rax
	addq	$32, %rsp
	popq	%rbp
	ret
	.seh_endproc
	.section	.text$_ZN5boost16exception_detail19error_info_injectorINS_13property_tree10xml_parser16xml_parser_errorEED2Ev,"x"
	.linkonce discard
	.align 2
	.globl	_ZN5boost16exception_detail19error_info_injectorINS_13property_tree10xml_parser16xml_parser_errorEED2Ev
	.def	_ZN5boost16exception_detail19error_info_injectorINS_13property_tree10xml_parser16xml_parser_errorEED2Ev;	.scl	2;	.type	32;	.endef
	.seh_proc	_ZN5boost16exception_detail19error_info_injectorINS_13property_tree10xml_parser16xml_parser_errorEED2Ev
_ZN5boost16exception_detail19error_info_injectorINS_13property_tree10xml_parser16xml_parser_errorEED2Ev:
.LFB6863:
	pushq	%rbp
	.seh_pushreg	%rbp
	movq	%rsp, %rbp
	.seh_setframe	%rbp, 0
	subq	$32, %rsp
	.seh_stackalloc	32
	.seh_endprologue
	movq	%rcx, 16(%rbp)
	leaq	16+_ZTVN5boost16exception_detail19error_info_injectorINS_13property_tree10xml_parser16xml_parser_errorEEE(%rip), %rdx
	movq	16(%rbp), %rax
	movq	%rdx, (%rax)
	leaq	56+_ZTVN5boost16exception_detail19error_info_injectorINS_13property_tree10xml_parser16xml_parser_errorEEE(%rip), %rdx
	movq	16(%rbp), %rax
	movq	%rdx, 88(%rax)
	movq	16(%rbp), %rax
	addq	$88, %rax
	movq	%rax, %rcx
	call	_ZN5boost9exceptionD2Ev
	movq	16(%rbp), %rax
	movq	%rax, %rcx
	call	_ZN5boost13property_tree10xml_parser16xml_parser_errorD2Ev
	nop
	addq	$32, %rsp
	popq	%rbp
	ret
	.seh_endproc
	.section	.text$_ZN5boost16exception_detail19error_info_injectorINS_13property_tree10xml_parser16xml_parser_errorEED1Ev,"x"
	.linkonce discard
	.align 2
	.globl	_ZN5boost16exception_detail19error_info_injectorINS_13property_tree10xml_parser16xml_parser_errorEED1Ev
	.def	_ZN5boost16exception_detail19error_info_injectorINS_13property_tree10xml_parser16xml_parser_errorEED1Ev;	.scl	2;	.type	32;	.endef
	.seh_proc	_ZN5boost16exception_detail19error_info_injectorINS_13property_tree10xml_parser16xml_parser_errorEED1Ev
_ZN5boost16exception_detail19error_info_injectorINS_13property_tree10xml_parser16xml_parser_errorEED1Ev:
.LFB6864:
	pushq	%rbp
	.seh_pushreg	%rbp
	movq	%rsp, %rbp
	.seh_setframe	%rbp, 0
	subq	$32, %rsp
	.seh_stackalloc	32
	.seh_endprologue
	movq	%rcx, 16(%rbp)
	leaq	16+_ZTVN5boost16exception_detail19error_info_injectorINS_13property_tree10xml_parser16xml_parser_errorEEE(%rip), %rdx
	movq	16(%rbp), %rax
	movq	%rdx, (%rax)
	leaq	56+_ZTVN5boost16exception_detail19error_info_injectorINS_13property_tree10xml_parser16xml_parser_errorEEE(%rip), %rdx
	movq	16(%rbp), %rax
	movq	%rdx, 88(%rax)
	movq	16(%rbp), %rax
	addq	$88, %rax
	movq	%rax, %rcx
	call	_ZN5boost9exceptionD2Ev
	movq	16(%rbp), %rax
	movq	%rax, %rcx
	call	_ZN5boost13property_tree10xml_parser16xml_parser_errorD2Ev
	nop
	addq	$32, %rsp
	popq	%rbp
	ret
	.seh_endproc
	.section	.text$_ZThn88_N5boost16exception_detail19error_info_injectorINS_13property_tree10xml_parser16xml_parser_errorEED1Ev,"x"
	.linkonce discard
	.globl	_ZThn88_N5boost16exception_detail19error_info_injectorINS_13property_tree10xml_parser16xml_parser_errorEED1Ev
	.def	_ZThn88_N5boost16exception_detail19error_info_injectorINS_13property_tree10xml_parser16xml_parser_errorEED1Ev;	.scl	2;	.type	32;	.endef
_ZThn88_N5boost16exception_detail19error_info_injectorINS_13property_tree10xml_parser16xml_parser_errorEED1Ev:
.LFB8006:
	subq	$88, %rcx
	jmp	_ZN5boost16exception_detail19error_info_injectorINS_13property_tree10xml_parser16xml_parser_errorEED1Ev
	.section	.text$_ZN5boost16exception_detail19error_info_injectorINS_13property_tree10xml_parser16xml_parser_errorEED0Ev,"x"
	.linkonce discard
	.align 2
	.globl	_ZN5boost16exception_detail19error_info_injectorINS_13property_tree10xml_parser16xml_parser_errorEED0Ev
	.def	_ZN5boost16exception_detail19error_info_injectorINS_13property_tree10xml_parser16xml_parser_errorEED0Ev;	.scl	2;	.type	32;	.endef
	.seh_proc	_ZN5boost16exception_detail19error_info_injectorINS_13property_tree10xml_parser16xml_parser_errorEED0Ev
_ZN5boost16exception_detail19error_info_injectorINS_13property_tree10xml_parser16xml_parser_errorEED0Ev:
.LFB6865:
	pushq	%rbp
	.seh_pushreg	%rbp
	movq	%rsp, %rbp
	.seh_setframe	%rbp, 0
	subq	$32, %rsp
	.seh_stackalloc	32
	.seh_endprologue
	movq	%rcx, 16(%rbp)
	movq	16(%rbp), %rcx
	call	_ZN5boost16exception_detail19error_info_injectorINS_13property_tree10xml_parser16xml_parser_errorEED1Ev
	movl	$128, %edx
	movq	16(%rbp), %rcx
	call	_ZdlPvy
	nop
	addq	$32, %rsp
	popq	%rbp
	ret
	.seh_endproc
	.section	.text$_ZThn88_N5boost16exception_detail19error_info_injectorINS_13property_tree10xml_parser16xml_parser_errorEED0Ev,"x"
	.linkonce discard
	.globl	_ZThn88_N5boost16exception_detail19error_info_injectorINS_13property_tree10xml_parser16xml_parser_errorEED0Ev
	.def	_ZThn88_N5boost16exception_detail19error_info_injectorINS_13property_tree10xml_parser16xml_parser_errorEED0Ev;	.scl	2;	.type	32;	.endef
_ZThn88_N5boost16exception_detail19error_info_injectorINS_13property_tree10xml_parser16xml_parser_errorEED0Ev:
.LFB8007:
	subq	$88, %rcx
	jmp	_ZN5boost16exception_detail19error_info_injectorINS_13property_tree10xml_parser16xml_parser_errorEED0Ev
	.section	.text$_ZN5boost16exception_detail8set_infoINS0_19error_info_injectorINS_13property_tree10xml_parser16xml_parser_errorEEEEERKT_S9_RKNS_10error_infoINS_15throw_function_EPKcEE,"x"
	.linkonce discard
	.globl	_ZN5boost16exception_detail8set_infoINS0_19error_info_injectorINS_13property_tree10xml_parser16xml_parser_errorEEEEERKT_S9_RKNS_10error_infoINS_15throw_function_EPKcEE
	.def	_ZN5boost16exception_detail8set_infoINS0_19error_info_injectorINS_13property_tree10xml_parser16xml_parser_errorEEEEERKT_S9_RKNS_10error_infoINS_15throw_function_EPKcEE;	.scl	2;	.type	32;	.endef
	.seh_proc	_ZN5boost16exception_detail8set_infoINS0_19error_info_injectorINS_13property_tree10xml_parser16xml_parser_errorEEEEERKT_S9_RKNS_10error_infoINS_15throw_function_EPKcEE
_ZN5boost16exception_detail8set_infoINS0_19error_info_injectorINS_13property_tree10xml_parser16xml_parser_errorEEEEERKT_S9_RKNS_10error_infoINS_15throw_function_EPKcEE:
.LFB6866:
	pushq	%rbp
	.seh_pushreg	%rbp
	movq	%rsp, %rbp
	.seh_setframe	%rbp, 0
	.seh_endprologue
	movq	%rcx, 16(%rbp)
	movq	%rdx, 24(%rbp)
	movq	24(%rbp), %rax
	movq	(%rax), %rdx
	movq	16(%rbp), %rax
	movq	%rdx, 104(%rax)
	movq	16(%rbp), %rax
	popq	%rbp
	ret
	.seh_endproc
	.section	.text$_ZN5boost16exception_detail8set_infoINS0_19error_info_injectorINS_13property_tree10xml_parser16xml_parser_errorEEEEERKT_S9_RKNS_10error_infoINS_11throw_file_EPKcEE,"x"
	.linkonce discard
	.globl	_ZN5boost16exception_detail8set_infoINS0_19error_info_injectorINS_13property_tree10xml_parser16xml_parser_errorEEEEERKT_S9_RKNS_10error_infoINS_11throw_file_EPKcEE
	.def	_ZN5boost16exception_detail8set_infoINS0_19error_info_injectorINS_13property_tree10xml_parser16xml_parser_errorEEEEERKT_S9_RKNS_10error_infoINS_11throw_file_EPKcEE;	.scl	2;	.type	32;	.endef
	.seh_proc	_ZN5boost16exception_detail8set_infoINS0_19error_info_injectorINS_13property_tree10xml_parser16xml_parser_errorEEEEERKT_S9_RKNS_10error_infoINS_11throw_file_EPKcEE
_ZN5boost16exception_detail8set_infoINS0_19error_info_injectorINS_13property_tree10xml_parser16xml_parser_errorEEEEERKT_S9_RKNS_10error_infoINS_11throw_file_EPKcEE:
.LFB6867:
	pushq	%rbp
	.seh_pushreg	%rbp
	movq	%rsp, %rbp
	.seh_setframe	%rbp, 0
	.seh_endprologue
	movq	%rcx, 16(%rbp)
	movq	%rdx, 24(%rbp)
	movq	24(%rbp), %rax
	movq	(%rax), %rdx
	movq	16(%rbp), %rax
	movq	%rdx, 112(%rax)
	movq	16(%rbp), %rax
	popq	%rbp
	ret
	.seh_endproc
	.section	.text$_ZN5boost16exception_detail8set_infoINS0_19error_info_injectorINS_13property_tree10xml_parser16xml_parser_errorEEEEERKT_S9_RKNS_10error_infoINS_11throw_line_EiEE,"x"
	.linkonce discard
	.globl	_ZN5boost16exception_detail8set_infoINS0_19error_info_injectorINS_13property_tree10xml_parser16xml_parser_errorEEEEERKT_S9_RKNS_10error_infoINS_11throw_line_EiEE
	.def	_ZN5boost16exception_detail8set_infoINS0_19error_info_injectorINS_13property_tree10xml_parser16xml_parser_errorEEEEERKT_S9_RKNS_10error_infoINS_11throw_line_EiEE;	.scl	2;	.type	32;	.endef
	.seh_proc	_ZN5boost16exception_detail8set_infoINS0_19error_info_injectorINS_13property_tree10xml_parser16xml_parser_errorEEEEERKT_S9_RKNS_10error_infoINS_11throw_line_EiEE
_ZN5boost16exception_detail8set_infoINS0_19error_info_injectorINS_13property_tree10xml_parser16xml_parser_errorEEEEERKT_S9_RKNS_10error_infoINS_11throw_line_EiEE:
.LFB6868:
	pushq	%rbp
	.seh_pushreg	%rbp
	movq	%rsp, %rbp
	.seh_setframe	%rbp, 0
	.seh_endprologue
	movq	%rcx, 16(%rbp)
	movq	%rdx, 24(%rbp)
	movq	24(%rbp), %rax
	movl	(%rax), %edx
	movq	16(%rbp), %rax
	movl	%edx, 120(%rax)
	movq	16(%rbp), %rax
	popq	%rbp
	ret
	.seh_endproc
	.section	.text$_ZN5boost16exception_detail10clone_implINS0_19error_info_injectorINS_13property_tree10xml_parser16xml_parser_errorEEEEC1ERKS7_,"x"
	.linkonce discard
	.align 2
	.globl	_ZN5boost16exception_detail10clone_implINS0_19error_info_injectorINS_13property_tree10xml_parser16xml_parser_errorEEEEC1ERKS7_
	.def	_ZN5boost16exception_detail10clone_implINS0_19error_info_injectorINS_13property_tree10xml_parser16xml_parser_errorEEEEC1ERKS7_;	.scl	2;	.type	32;	.endef
	.seh_proc	_ZN5boost16exception_detail10clone_implINS0_19error_info_injectorINS_13property_tree10xml_parser16xml_parser_errorEEEEC1ERKS7_
_ZN5boost16exception_detail10clone_implINS0_19error_info_injectorINS_13property_tree10xml_parser16xml_parser_errorEEEEC1ERKS7_:
.LFB6873:
	pushq	%rbp
	.seh_pushreg	%rbp
	pushq	%rbx
	.seh_pushreg	%rbx
	subq	$40, %rsp
	.seh_stackalloc	40
	leaq	128(%rsp), %rbp
	.seh_setframe	%rbp, 128
	.seh_endprologue
	movq	%rcx, -64(%rbp)
	movq	%rdx, -56(%rbp)
	movq	-64(%rbp), %rax
	subq	$-128, %rax
	movq	-56(%rbp), %rdx
	movq	(%rdx), %rdx
	subq	$24, %rdx
	movq	(%rdx), %rdx
	movq	%rdx, %rcx
	movq	-56(%rbp), %rdx
	addq	%rcx, %rdx
	movq	%rax, %rcx
	call	_ZN5boost16exception_detail10clone_baseC2ERKS1_
	movq	-64(%rbp), %rax
	movq	-56(%rbp), %rdx
	movq	%rax, %rcx
.LEHB69:
	call	_ZN5boost16exception_detail19error_info_injectorINS_13property_tree10xml_parser16xml_parser_errorEEC2ERKS5_
.LEHE69:
	leaq	24+_ZTVN5boost16exception_detail10clone_implINS0_19error_info_injectorINS_13property_tree10xml_parser16xml_parser_errorEEEEE(%rip), %rdx
	movq	-64(%rbp), %rax
	movq	%rdx, (%rax)
	leaq	80+_ZTVN5boost16exception_detail10clone_implINS0_19error_info_injectorINS_13property_tree10xml_parser16xml_parser_errorEEEEE(%rip), %rdx
	movq	-64(%rbp), %rax
	movq	%rdx, 88(%rax)
	movq	-64(%rbp), %rax
	subq	$-128, %rax
	leaq	136+_ZTVN5boost16exception_detail10clone_implINS0_19error_info_injectorINS_13property_tree10xml_parser16xml_parser_errorEEEEE(%rip), %rdx
	movq	%rdx, (%rax)
	jmp	.L279
.L278:
	movq	%rax, %rbx
	movq	-64(%rbp), %rax
	subq	$-128, %rax
	movq	%rax, %rcx
	call	_ZN5boost16exception_detail10clone_baseD2Ev
	movq	%rbx, %rax
	movq	%rax, %rcx
.LEHB70:
	call	_Unwind_Resume
	nop
.LEHE70:
.L279:
	addq	$40, %rsp
	popq	%rbx
	popq	%rbp
	ret
	.seh_handler	__gxx_personality_seh0, @unwind, @except
	.seh_handlerdata
.LLSDA6873:
	.byte	0xff
	.byte	0xff
	.byte	0x1
	.uleb128 .LLSDACSE6873-.LLSDACSB6873
.LLSDACSB6873:
	.uleb128 .LEHB69-.LFB6873
	.uleb128 .LEHE69-.LEHB69
	.uleb128 .L278-.LFB6873
	.uleb128 0
	.uleb128 .LEHB70-.LFB6873
	.uleb128 .LEHE70-.LEHB70
	.uleb128 0
	.uleb128 0
.LLSDACSE6873:
	.section	.text$_ZN5boost16exception_detail10clone_implINS0_19error_info_injectorINS_13property_tree10xml_parser16xml_parser_errorEEEEC1ERKS7_,"x"
	.linkonce discard
	.seh_endproc
	.section	.text$_ZN5boost15throw_exceptionINS_16exception_detail19error_info_injectorINS_13property_tree10xml_parser16xml_parser_errorEEEEEvRKT_,"x"
	.linkonce discard
	.globl	_ZN5boost15throw_exceptionINS_16exception_detail19error_info_injectorINS_13property_tree10xml_parser16xml_parser_errorEEEEEvRKT_
	.def	_ZN5boost15throw_exceptionINS_16exception_detail19error_info_injectorINS_13property_tree10xml_parser16xml_parser_errorEEEEEvRKT_;	.scl	2;	.type	32;	.endef
	.seh_proc	_ZN5boost15throw_exceptionINS_16exception_detail19error_info_injectorINS_13property_tree10xml_parser16xml_parser_errorEEEEEvRKT_
_ZN5boost15throw_exceptionINS_16exception_detail19error_info_injectorINS_13property_tree10xml_parser16xml_parser_errorEEEEEvRKT_:
.LFB6869:
	pushq	%rbp
	.seh_pushreg	%rbp
	pushq	%rsi
	.seh_pushreg	%rsi
	pushq	%rbx
	.seh_pushreg	%rbx
	movq	%rsp, %rbp
	.seh_setframe	%rbp, 0
	subq	$32, %rsp
	.seh_stackalloc	32
	.seh_endprologue
	movq	%rcx, 32(%rbp)
	movq	32(%rbp), %rax
	movq	%rax, %rcx
	call	_ZN5boost36throw_exception_assert_compatibilityERKSt9exception
	movl	$136, %ecx
	call	__cxa_allocate_exception
	movq	%rax, %rbx
	movq	32(%rbp), %rdx
	movq	%rbx, %rcx
.LEHB71:
	call	_ZN5boost16exception_detail11enable_bothINS0_19error_info_injectorINS_13property_tree10xml_parser16xml_parser_errorEEEEENS_10wrapexceptINS0_26remove_error_info_injectorIT_E4typeEEERKS9_
.LEHE71:
	leaq	_ZN5boost10wrapexceptINS_13property_tree10xml_parser16xml_parser_errorEED1Ev(%rip), %rax
	movq	%rax, %r8
	leaq	_ZTIN5boost10wrapexceptINS_13property_tree10xml_parser16xml_parser_errorEEE(%rip), %rdx
	movq	%rbx, %rcx
.LEHB72:
	call	__cxa_throw
.L282:
	movq	%rax, %rsi
	movq	%rbx, %rcx
	call	__cxa_free_exception
	movq	%rsi, %rax
	movq	%rax, %rcx
	call	_Unwind_Resume
	nop
.LEHE72:
	.seh_handler	__gxx_personality_seh0, @unwind, @except
	.seh_handlerdata
.LLSDA6869:
	.byte	0xff
	.byte	0xff
	.byte	0x1
	.uleb128 .LLSDACSE6869-.LLSDACSB6869
.LLSDACSB6869:
	.uleb128 .LEHB71-.LFB6869
	.uleb128 .LEHE71-.LEHB71
	.uleb128 .L282-.LFB6869
	.uleb128 0
	.uleb128 .LEHB72-.LFB6869
	.uleb128 .LEHE72-.LEHB72
	.uleb128 0
	.uleb128 0
.LLSDACSE6869:
	.section	.text$_ZN5boost15throw_exceptionINS_16exception_detail19error_info_injectorINS_13property_tree10xml_parser16xml_parser_errorEEEEEvRKT_,"x"
	.linkonce discard
	.seh_endproc
	.section	.text$_ZNSt19istreambuf_iteratorIcSt11char_traitsIcEEC1EPSt15basic_streambufIcS1_E,"x"
	.linkonce discard
	.align 2
	.globl	_ZNSt19istreambuf_iteratorIcSt11char_traitsIcEEC1EPSt15basic_streambufIcS1_E
	.def	_ZNSt19istreambuf_iteratorIcSt11char_traitsIcEEC1EPSt15basic_streambufIcS1_E;	.scl	2;	.type	32;	.endef
	.seh_proc	_ZNSt19istreambuf_iteratorIcSt11char_traitsIcEEC1EPSt15basic_streambufIcS1_E
_ZNSt19istreambuf_iteratorIcSt11char_traitsIcEEC1EPSt15basic_streambufIcS1_E:
.LFB6879:
	pushq	%rbp
	.seh_pushreg	%rbp
	movq	%rsp, %rbp
	.seh_setframe	%rbp, 0
	subq	$32, %rsp
	.seh_stackalloc	32
	.seh_endprologue
	movq	%rcx, 16(%rbp)
	movq	%rdx, 24(%rbp)
	movq	16(%rbp), %rax
	movq	24(%rbp), %rdx
	movq	%rdx, (%rax)
	call	_ZNSt11char_traitsIcE3eofEv
	movq	16(%rbp), %rdx
	movl	%eax, 8(%rdx)
	nop
	addq	$32, %rsp
	popq	%rbp
	ret
	.seh_endproc
	.section	.text$_ZNSt19istreambuf_iteratorIcSt11char_traitsIcEEC1Ev,"x"
	.linkonce discard
	.align 2
	.globl	_ZNSt19istreambuf_iteratorIcSt11char_traitsIcEEC1Ev
	.def	_ZNSt19istreambuf_iteratorIcSt11char_traitsIcEEC1Ev;	.scl	2;	.type	32;	.endef
	.seh_proc	_ZNSt19istreambuf_iteratorIcSt11char_traitsIcEEC1Ev
_ZNSt19istreambuf_iteratorIcSt11char_traitsIcEEC1Ev:
.LFB6882:
	pushq	%rbp
	.seh_pushreg	%rbp
	movq	%rsp, %rbp
	.seh_setframe	%rbp, 0
	subq	$32, %rsp
	.seh_stackalloc	32
	.seh_endprologue
	movq	%rcx, 16(%rbp)
	movq	16(%rbp), %rax
	movq	$0, (%rax)
	call	_ZNSt11char_traitsIcE3eofEv
	movq	16(%rbp), %rdx
	movl	%eax, 8(%rdx)
	nop
	addq	$32, %rsp
	popq	%rbp
	ret
	.seh_endproc
	.section	.text$_ZNSt6vectorIcSaIcEEC1ISt19istreambuf_iteratorIcSt11char_traitsIcEEvEET_S7_RKS0_,"x"
	.linkonce discard
	.align 2
	.globl	_ZNSt6vectorIcSaIcEEC1ISt19istreambuf_iteratorIcSt11char_traitsIcEEvEET_S7_RKS0_
	.def	_ZNSt6vectorIcSaIcEEC1ISt19istreambuf_iteratorIcSt11char_traitsIcEEvEET_S7_RKS0_;	.scl	2;	.type	32;	.endef
	.seh_proc	_ZNSt6vectorIcSaIcEEC1ISt19istreambuf_iteratorIcSt11char_traitsIcEEvEET_S7_RKS0_
_ZNSt6vectorIcSaIcEEC1ISt19istreambuf_iteratorIcSt11char_traitsIcEEvEET_S7_RKS0_:
.LFB6885:
	pushq	%rbp
	.seh_pushreg	%rbp
	pushq	%rsi
	.seh_pushreg	%rsi
	pushq	%rbx
	.seh_pushreg	%rbx
	movq	%rsp, %rbp
	.seh_setframe	%rbp, 0
	subq	$112, %rsp
	.seh_stackalloc	112
	.seh_endprologue
	movq	%rcx, 32(%rbp)
	movq	%rdx, %rbx
	movq	(%rbx), %rax
	movq	8(%rbx), %rdx
	movq	%rax, -32(%rbp)
	movq	%rdx, -24(%rbp)
	movq	%r8, %rbx
	movq	(%rbx), %rax
	movq	8(%rbx), %rdx
	movq	%rax, -48(%rbp)
	movq	%rdx, -40(%rbp)
	movq	%r9, 56(%rbp)
	movq	32(%rbp), %rax
	movq	56(%rbp), %rdx
	movq	%rax, %rcx
	call	_ZNSt12_Vector_baseIcSaIcEEC2ERKS0_
	leaq	-32(%rbp), %rax
	movq	%rax, %rcx
	call	_ZSt19__iterator_categoryISt19istreambuf_iteratorIcSt11char_traitsIcEEENSt15iterator_traitsIT_E17iterator_categoryERKS5_
	movq	-32(%rbp), %rax
	movq	-24(%rbp), %rdx
	movq	%rax, -64(%rbp)
	movq	%rdx, -56(%rbp)
	movq	-48(%rbp), %rax
	movq	-40(%rbp), %rdx
	movq	%rax, -80(%rbp)
	movq	%rdx, -72(%rbp)
	leaq	-80(%rbp), %rdx
	leaq	-64(%rbp), %rax
	movl	%esi, %r9d
	movq	%rdx, %r8
	movq	%rax, %rdx
	movq	32(%rbp), %rcx
.LEHB73:
	call	_ZNSt6vectorIcSaIcEE19_M_range_initializeISt19istreambuf_iteratorIcSt11char_traitsIcEEEEvT_S7_St18input_iterator_tag
.LEHE73:
	jmp	.L288
.L287:
	movq	%rax, %rbx
	movq	32(%rbp), %rax
	movq	%rax, %rcx
	call	_ZNSt12_Vector_baseIcSaIcEED2Ev
	movq	%rbx, %rax
	movq	%rax, %rcx
.LEHB74:
	call	_Unwind_Resume
	nop
.LEHE74:
.L288:
	addq	$112, %rsp
	popq	%rbx
	popq	%rsi
	popq	%rbp
	ret
	.seh_handler	__gxx_personality_seh0, @unwind, @except
	.seh_handlerdata
.LLSDA6885:
	.byte	0xff
	.byte	0xff
	.byte	0x1
	.uleb128 .LLSDACSE6885-.LLSDACSB6885
.LLSDACSB6885:
	.uleb128 .LEHB73-.LFB6885
	.uleb128 .LEHE73-.LEHB73
	.uleb128 .L287-.LFB6885
	.uleb128 0
	.uleb128 .LEHB74-.LFB6885
	.uleb128 .LEHE74-.LEHB74
	.uleb128 0
	.uleb128 0
.LLSDACSE6885:
	.section	.text$_ZNSt6vectorIcSaIcEEC1ISt19istreambuf_iteratorIcSt11char_traitsIcEEvEET_S7_RKS0_,"x"
	.linkonce discard
	.seh_endproc
	.section	.text$_ZNSt6vectorIcSaIcEED1Ev,"x"
	.linkonce discard
	.align 2
	.globl	_ZNSt6vectorIcSaIcEED1Ev
	.def	_ZNSt6vectorIcSaIcEED1Ev;	.scl	2;	.type	32;	.endef
	.seh_proc	_ZNSt6vectorIcSaIcEED1Ev
_ZNSt6vectorIcSaIcEED1Ev:
.LFB6888:
	pushq	%rbp
	.seh_pushreg	%rbp
	movq	%rsp, %rbp
	.seh_setframe	%rbp, 0
	subq	$32, %rsp
	.seh_stackalloc	32
	.seh_endprologue
	movq	%rcx, 16(%rbp)
	movq	16(%rbp), %rax
	movq	%rax, %rcx
	call	_ZNSt12_Vector_baseIcSaIcEE19_M_get_Tp_allocatorEv
	movq	%rax, %rcx
	movq	16(%rbp), %rax
	movq	8(%rax), %rdx
	movq	16(%rbp), %rax
	movq	(%rax), %rax
	movq	%rcx, %r8
	movq	%rax, %rcx
	call	_ZSt8_DestroyIPccEvT_S1_RSaIT0_E
	movq	16(%rbp), %rax
	movq	%rax, %rcx
	call	_ZNSt12_Vector_baseIcSaIcEED2Ev
	nop
	addq	$32, %rsp
	popq	%rbp
	ret
	.seh_handler	__gxx_personality_seh0, @unwind, @except
	.seh_handlerdata
.LLSDA6888:
	.byte	0xff
	.byte	0xff
	.byte	0x1
	.uleb128 .LLSDACSE6888-.LLSDACSB6888
.LLSDACSB6888:
.LLSDACSE6888:
	.section	.text$_ZNSt6vectorIcSaIcEED1Ev,"x"
	.linkonce discard
	.seh_endproc
	.section	.text$_ZNSt6vectorIcSaIcEE9push_backEOc,"x"
	.linkonce discard
	.align 2
	.globl	_ZNSt6vectorIcSaIcEE9push_backEOc
	.def	_ZNSt6vectorIcSaIcEE9push_backEOc;	.scl	2;	.type	32;	.endef
	.seh_proc	_ZNSt6vectorIcSaIcEE9push_backEOc
_ZNSt6vectorIcSaIcEE9push_backEOc:
.LFB6890:
	pushq	%rbp
	.seh_pushreg	%rbp
	movq	%rsp, %rbp
	.seh_setframe	%rbp, 0
	subq	$32, %rsp
	.seh_stackalloc	32
	.seh_endprologue
	movq	%rcx, 16(%rbp)
	movq	%rdx, 24(%rbp)
	movq	24(%rbp), %rax
	movq	%rax, %rcx
	call	_ZSt4moveIRcEONSt16remove_referenceIT_E4typeEOS2_
	movq	%rax, %rdx
	movq	16(%rbp), %rcx
	call	_ZNSt6vectorIcSaIcEE12emplace_backIJcEEEvDpOT_
	nop
	addq	$32, %rsp
	popq	%rbp
	ret
	.seh_endproc
	.section	.text$_ZN5boost13property_tree6detail8rapidxml12xml_documentIcEC1Ev,"x"
	.linkonce discard
	.align 2
	.globl	_ZN5boost13property_tree6detail8rapidxml12xml_documentIcEC1Ev
	.def	_ZN5boost13property_tree6detail8rapidxml12xml_documentIcEC1Ev;	.scl	2;	.type	32;	.endef
	.seh_proc	_ZN5boost13property_tree6detail8rapidxml12xml_documentIcEC1Ev
_ZN5boost13property_tree6detail8rapidxml12xml_documentIcEC1Ev:
.LFB6893:
	pushq	%rbp
	.seh_pushreg	%rbp
	movq	%rsp, %rbp
	.seh_setframe	%rbp, 0
	subq	$32, %rsp
	.seh_stackalloc	32
	.seh_endprologue
	movq	%rcx, 16(%rbp)
	movq	16(%rbp), %rax
	movl	$0, %edx
	movq	%rax, %rcx
	call	_ZN5boost13property_tree6detail8rapidxml8xml_nodeIcEC2ENS2_9node_typeE
	movq	16(%rbp), %rax
	addq	$96, %rax
	movq	%rax, %rcx
	call	_ZN5boost13property_tree6detail8rapidxml11memory_poolIcEC2Ev
	nop
	addq	$32, %rsp
	popq	%rbp
	ret
	.seh_endproc
	.section	.text$_ZN5boost13property_tree6detail8rapidxml11memory_poolIcED2Ev,"x"
	.linkonce discard
	.align 2
	.globl	_ZN5boost13property_tree6detail8rapidxml11memory_poolIcED2Ev
	.def	_ZN5boost13property_tree6detail8rapidxml11memory_poolIcED2Ev;	.scl	2;	.type	32;	.endef
	.seh_proc	_ZN5boost13property_tree6detail8rapidxml11memory_poolIcED2Ev
_ZN5boost13property_tree6detail8rapidxml11memory_poolIcED2Ev:
.LFB6895:
	pushq	%rbp
	.seh_pushreg	%rbp
	movq	%rsp, %rbp
	.seh_setframe	%rbp, 0
	subq	$32, %rsp
	.seh_stackalloc	32
	.seh_endprologue
	movq	%rcx, 16(%rbp)
	movq	16(%rbp), %rcx
	call	_ZN5boost13property_tree6detail8rapidxml11memory_poolIcE5clearEv
	nop
	addq	$32, %rsp
	popq	%rbp
	ret
	.seh_handler	__gxx_personality_seh0, @unwind, @except
	.seh_handlerdata
.LLSDA6895:
	.byte	0xff
	.byte	0xff
	.byte	0x1
	.uleb128 .LLSDACSE6895-.LLSDACSB6895
.LLSDACSB6895:
.LLSDACSE6895:
	.section	.text$_ZN5boost13property_tree6detail8rapidxml11memory_poolIcED2Ev,"x"
	.linkonce discard
	.seh_endproc
	.section	.text$_ZNSt6vectorIcSaIcEE5frontEv,"x"
	.linkonce discard
	.align 2
	.globl	_ZNSt6vectorIcSaIcEE5frontEv
	.def	_ZNSt6vectorIcSaIcEE5frontEv;	.scl	2;	.type	32;	.endef
	.seh_proc	_ZNSt6vectorIcSaIcEE5frontEv
_ZNSt6vectorIcSaIcEE5frontEv:
.LFB6897:
	pushq	%rbp
	.seh_pushreg	%rbp
	movq	%rsp, %rbp
	.seh_setframe	%rbp, 0
	subq	$48, %rsp
	.seh_stackalloc	48
	.seh_endprologue
	movq	%rcx, 16(%rbp)
	movq	16(%rbp), %rcx
	call	_ZNSt6vectorIcSaIcEE5beginEv
	movq	%rax, -8(%rbp)
	leaq	-8(%rbp), %rax
	movq	%rax, %rcx
	call	_ZNK9__gnu_cxx17__normal_iteratorIPcSt6vectorIcSaIcEEEdeEv
	addq	$48, %rsp
	popq	%rbp
	ret
	.seh_endproc
	.section	.text$_ZN5boost13property_tree6detail8rapidxml11parse_errorD1Ev,"x"
	.linkonce discard
	.align 2
	.globl	_ZN5boost13property_tree6detail8rapidxml11parse_errorD1Ev
	.def	_ZN5boost13property_tree6detail8rapidxml11parse_errorD1Ev;	.scl	2;	.type	32;	.endef
	.seh_proc	_ZN5boost13property_tree6detail8rapidxml11parse_errorD1Ev
_ZN5boost13property_tree6detail8rapidxml11parse_errorD1Ev:
.LFB6901:
	pushq	%rbp
	.seh_pushreg	%rbp
	movq	%rsp, %rbp
	.seh_setframe	%rbp, 0
	subq	$32, %rsp
	.seh_stackalloc	32
	.seh_endprologue
	movq	%rcx, 16(%rbp)
	leaq	16+_ZTVN5boost13property_tree6detail8rapidxml11parse_errorE(%rip), %rdx
	movq	16(%rbp), %rax
	movq	%rdx, (%rax)
	movq	16(%rbp), %rax
	movq	%rax, %rcx
	call	_ZNSt9exceptionD2Ev
	nop
	addq	$32, %rsp
	popq	%rbp
	ret
	.seh_endproc
	.section	.text$_ZN5boost13property_tree6detail8rapidxml11parse_errorD0Ev,"x"
	.linkonce discard
	.align 2
	.globl	_ZN5boost13property_tree6detail8rapidxml11parse_errorD0Ev
	.def	_ZN5boost13property_tree6detail8rapidxml11parse_errorD0Ev;	.scl	2;	.type	32;	.endef
	.seh_proc	_ZN5boost13property_tree6detail8rapidxml11parse_errorD0Ev
_ZN5boost13property_tree6detail8rapidxml11parse_errorD0Ev:
.LFB6902:
	pushq	%rbp
	.seh_pushreg	%rbp
	movq	%rsp, %rbp
	.seh_setframe	%rbp, 0
	subq	$32, %rsp
	.seh_stackalloc	32
	.seh_endprologue
	movq	%rcx, 16(%rbp)
	movq	16(%rbp), %rcx
	call	_ZN5boost13property_tree6detail8rapidxml11parse_errorD1Ev
	movl	$24, %edx
	movq	16(%rbp), %rcx
	call	_ZdlPvy
	nop
	addq	$32, %rsp
	popq	%rbp
	ret
	.seh_endproc
	.section .rdata,"dr"
	.align 8
.LC12:
	.ascii "C:/msys64/mingw64/include/boost/property_tree/detail/rapidxml.hpp\0"
.LC13:
	.ascii "text\0"
.LC14:
	.ascii "expected <\0"
	.section	.text$_ZN5boost13property_tree6detail8rapidxml12xml_documentIcE5parseILi3072EEEvPc,"x"
	.linkonce discard
	.align 2
	.globl	_ZN5boost13property_tree6detail8rapidxml12xml_documentIcE5parseILi3072EEEvPc
	.def	_ZN5boost13property_tree6detail8rapidxml12xml_documentIcE5parseILi3072EEEvPc;	.scl	2;	.type	32;	.endef
	.seh_proc	_ZN5boost13property_tree6detail8rapidxml12xml_documentIcE5parseILi3072EEEvPc
_ZN5boost13property_tree6detail8rapidxml12xml_documentIcE5parseILi3072EEEvPc:
.LFB6898:
	pushq	%rbp
	.seh_pushreg	%rbp
	pushq	%rbx
	.seh_pushreg	%rbx
	subq	$56, %rsp
	.seh_stackalloc	56
	leaq	128(%rsp), %rbp
	.seh_setframe	%rbp, 128
	.seh_endprologue
	movq	%rcx, -48(%rbp)
	movq	%rdx, -40(%rbp)
	movq	-40(%rbp), %rax
	testq	%rax, %rax
	jne	.L300
	movl	$1367, %r8d
	leaq	.LC12(%rip), %rdx
	leaq	.LC13(%rip), %rcx
	movq	__imp__assert(%rip), %rax
	call	*%rax
.L300:
	movq	-48(%rbp), %rax
	movq	%rax, %rcx
	call	_ZN5boost13property_tree6detail8rapidxml8xml_nodeIcE16remove_all_nodesEv
	movq	-48(%rbp), %rax
	movq	%rax, %rcx
	call	_ZN5boost13property_tree6detail8rapidxml8xml_nodeIcE21remove_all_attributesEv
	leaq	-40(%rbp), %rax
	movq	%rax, %rdx
	movq	-48(%rbp), %rcx
	call	_ZN5boost13property_tree6detail8rapidxml12xml_documentIcE9parse_bomILi3072EEEvRPc
.L305:
	leaq	-40(%rbp), %rax
	movq	%rax, %rcx
	call	_ZN5boost13property_tree6detail8rapidxml12xml_documentIcE4skipINS4_15whitespace_predELi3072EEEvRPc
	movq	-40(%rbp), %rax
	movzbl	(%rax), %eax
	testb	%al, %al
	je	.L307
	movq	-40(%rbp), %rax
	movzbl	(%rax), %eax
	cmpb	$60, %al
	jne	.L303
	movq	-40(%rbp), %rax
	addq	$1, %rax
	movq	%rax, -40(%rbp)
	leaq	-40(%rbp), %rax
	movq	%rax, %rdx
	movq	-48(%rbp), %rcx
	call	_ZN5boost13property_tree6detail8rapidxml12xml_documentIcE10parse_nodeILi3072EEEPNS2_8xml_nodeIcEERPc
	movq	%rax, -88(%rbp)
	cmpq	$0, -88(%rbp)
	je	.L305
	movq	-48(%rbp), %rax
	movq	-88(%rbp), %rdx
	movq	%rax, %rcx
	call	_ZN5boost13property_tree6detail8rapidxml8xml_nodeIcE11append_nodeEPS4_
	jmp	.L305
.L303:
	movl	$24, %ecx
	call	__cxa_allocate_exception
	movq	%rax, %rbx
	movq	-40(%rbp), %rax
	movq	%rax, %r8
	leaq	.LC14(%rip), %rdx
	movq	%rbx, %rcx
	call	_ZN5boost13property_tree6detail8rapidxml11parse_errorC1EPKcPv
	leaq	_ZN5boost13property_tree6detail8rapidxml11parse_errorD1Ev(%rip), %rax
	movq	%rax, %r8
	leaq	_ZTIN5boost13property_tree6detail8rapidxml11parse_errorE(%rip), %rdx
	movq	%rbx, %rcx
	call	__cxa_throw
.L307:
	nop
	nop
	addq	$56, %rsp
	popq	%rbx
	popq	%rbp
	ret
	.seh_endproc
	.section	.text$_ZN5boost13property_tree6detail8rapidxml12xml_documentIcE5parseILi0EEEvPc,"x"
	.linkonce discard
	.align 2
	.globl	_ZN5boost13property_tree6detail8rapidxml12xml_documentIcE5parseILi0EEEvPc
	.def	_ZN5boost13property_tree6detail8rapidxml12xml_documentIcE5parseILi0EEEvPc;	.scl	2;	.type	32;	.endef
	.seh_proc	_ZN5boost13property_tree6detail8rapidxml12xml_documentIcE5parseILi0EEEvPc
_ZN5boost13property_tree6detail8rapidxml12xml_documentIcE5parseILi0EEEvPc:
.LFB6906:
	pushq	%rbp
	.seh_pushreg	%rbp
	pushq	%rbx
	.seh_pushreg	%rbx
	subq	$56, %rsp
	.seh_stackalloc	56
	leaq	128(%rsp), %rbp
	.seh_setframe	%rbp, 128
	.seh_endprologue
	movq	%rcx, -48(%rbp)
	movq	%rdx, -40(%rbp)
	movq	-40(%rbp), %rax
	testq	%rax, %rax
	jne	.L311
	movl	$1367, %r8d
	leaq	.LC12(%rip), %rdx
	leaq	.LC13(%rip), %rcx
	movq	__imp__assert(%rip), %rax
	call	*%rax
.L311:
	movq	-48(%rbp), %rax
	movq	%rax, %rcx
	call	_ZN5boost13property_tree6detail8rapidxml8xml_nodeIcE16remove_all_nodesEv
	movq	-48(%rbp), %rax
	movq	%rax, %rcx
	call	_ZN5boost13property_tree6detail8rapidxml8xml_nodeIcE21remove_all_attributesEv
	leaq	-40(%rbp), %rax
	movq	%rax, %rdx
	movq	-48(%rbp), %rcx
	call	_ZN5boost13property_tree6detail8rapidxml12xml_documentIcE9parse_bomILi0EEEvRPc
.L316:
	leaq	-40(%rbp), %rax
	movq	%rax, %rcx
	call	_ZN5boost13property_tree6detail8rapidxml12xml_documentIcE4skipINS4_15whitespace_predELi0EEEvRPc
	movq	-40(%rbp), %rax
	movzbl	(%rax), %eax
	testb	%al, %al
	je	.L318
	movq	-40(%rbp), %rax
	movzbl	(%rax), %eax
	cmpb	$60, %al
	jne	.L314
	movq	-40(%rbp), %rax
	addq	$1, %rax
	movq	%rax, -40(%rbp)
	leaq	-40(%rbp), %rax
	movq	%rax, %rdx
	movq	-48(%rbp), %rcx
	call	_ZN5boost13property_tree6detail8rapidxml12xml_documentIcE10parse_nodeILi0EEEPNS2_8xml_nodeIcEERPc
	movq	%rax, -88(%rbp)
	cmpq	$0, -88(%rbp)
	je	.L316
	movq	-48(%rbp), %rax
	movq	-88(%rbp), %rdx
	movq	%rax, %rcx
	call	_ZN5boost13property_tree6detail8rapidxml8xml_nodeIcE11append_nodeEPS4_
	jmp	.L316
.L314:
	movl	$24, %ecx
	call	__cxa_allocate_exception
	movq	%rax, %rbx
	movq	-40(%rbp), %rax
	movq	%rax, %r8
	leaq	.LC14(%rip), %rdx
	movq	%rbx, %rcx
	call	_ZN5boost13property_tree6detail8rapidxml11parse_errorC1EPKcPv
	leaq	_ZN5boost13property_tree6detail8rapidxml11parse_errorD1Ev(%rip), %rax
	movq	%rax, %r8
	leaq	_ZTIN5boost13property_tree6detail8rapidxml11parse_errorE(%rip), %rdx
	movq	%rbx, %rcx
	call	__cxa_throw
.L318:
	nop
	nop
	addq	$56, %rsp
	popq	%rbx
	popq	%rbp
	ret
	.seh_endproc
	.section	.text$_ZN5boost13property_tree6detail8rapidxml12xml_documentIcE5parseILi3136EEEvPc,"x"
	.linkonce discard
	.align 2
	.globl	_ZN5boost13property_tree6detail8rapidxml12xml_documentIcE5parseILi3136EEEvPc
	.def	_ZN5boost13property_tree6detail8rapidxml12xml_documentIcE5parseILi3136EEEvPc;	.scl	2;	.type	32;	.endef
	.seh_proc	_ZN5boost13property_tree6detail8rapidxml12xml_documentIcE5parseILi3136EEEvPc
_ZN5boost13property_tree6detail8rapidxml12xml_documentIcE5parseILi3136EEEvPc:
.LFB6907:
	pushq	%rbp
	.seh_pushreg	%rbp
	pushq	%rbx
	.seh_pushreg	%rbx
	subq	$56, %rsp
	.seh_stackalloc	56
	leaq	128(%rsp), %rbp
	.seh_setframe	%rbp, 128
	.seh_endprologue
	movq	%rcx, -48(%rbp)
	movq	%rdx, -40(%rbp)
	movq	-40(%rbp), %rax
	testq	%rax, %rax
	jne	.L322
	movl	$1367, %r8d
	leaq	.LC12(%rip), %rdx
	leaq	.LC13(%rip), %rcx
	movq	__imp__assert(%rip), %rax
	call	*%rax
.L322:
	movq	-48(%rbp), %rax
	movq	%rax, %rcx
	call	_ZN5boost13property_tree6detail8rapidxml8xml_nodeIcE16remove_all_nodesEv
	movq	-48(%rbp), %rax
	movq	%rax, %rcx
	call	_ZN5boost13property_tree6detail8rapidxml8xml_nodeIcE21remove_all_attributesEv
	leaq	-40(%rbp), %rax
	movq	%rax, %rdx
	movq	-48(%rbp), %rcx
	call	_ZN5boost13property_tree6detail8rapidxml12xml_documentIcE9parse_bomILi3136EEEvRPc
.L327:
	leaq	-40(%rbp), %rax
	movq	%rax, %rcx
	call	_ZN5boost13property_tree6detail8rapidxml12xml_documentIcE4skipINS4_15whitespace_predELi3136EEEvRPc
	movq	-40(%rbp), %rax
	movzbl	(%rax), %eax
	testb	%al, %al
	je	.L329
	movq	-40(%rbp), %rax
	movzbl	(%rax), %eax
	cmpb	$60, %al
	jne	.L325
	movq	-40(%rbp), %rax
	addq	$1, %rax
	movq	%rax, -40(%rbp)
	leaq	-40(%rbp), %rax
	movq	%rax, %rdx
	movq	-48(%rbp), %rcx
	call	_ZN5boost13property_tree6detail8rapidxml12xml_documentIcE10parse_nodeILi3136EEEPNS2_8xml_nodeIcEERPc
	movq	%rax, -88(%rbp)
	cmpq	$0, -88(%rbp)
	je	.L327
	movq	-48(%rbp), %rax
	movq	-88(%rbp), %rdx
	movq	%rax, %rcx
	call	_ZN5boost13property_tree6detail8rapidxml8xml_nodeIcE11append_nodeEPS4_
	jmp	.L327
.L325:
	movl	$24, %ecx
	call	__cxa_allocate_exception
	movq	%rax, %rbx
	movq	-40(%rbp), %rax
	movq	%rax, %r8
	leaq	.LC14(%rip), %rdx
	movq	%rbx, %rcx
	call	_ZN5boost13property_tree6detail8rapidxml11parse_errorC1EPKcPv
	leaq	_ZN5boost13property_tree6detail8rapidxml11parse_errorD1Ev(%rip), %rax
	movq	%rax, %r8
	leaq	_ZTIN5boost13property_tree6detail8rapidxml11parse_errorE(%rip), %rdx
	movq	%rbx, %rcx
	call	__cxa_throw
.L329:
	nop
	nop
	addq	$56, %rsp
	popq	%rbx
	popq	%rbp
	ret
	.seh_endproc
	.section	.text$_ZN5boost13property_tree6detail8rapidxml12xml_documentIcE5parseILi64EEEvPc,"x"
	.linkonce discard
	.align 2
	.globl	_ZN5boost13property_tree6detail8rapidxml12xml_documentIcE5parseILi64EEEvPc
	.def	_ZN5boost13property_tree6detail8rapidxml12xml_documentIcE5parseILi64EEEvPc;	.scl	2;	.type	32;	.endef
	.seh_proc	_ZN5boost13property_tree6detail8rapidxml12xml_documentIcE5parseILi64EEEvPc
_ZN5boost13property_tree6detail8rapidxml12xml_documentIcE5parseILi64EEEvPc:
.LFB6908:
	pushq	%rbp
	.seh_pushreg	%rbp
	pushq	%rbx
	.seh_pushreg	%rbx
	subq	$56, %rsp
	.seh_stackalloc	56
	leaq	128(%rsp), %rbp
	.seh_setframe	%rbp, 128
	.seh_endprologue
	movq	%rcx, -48(%rbp)
	movq	%rdx, -40(%rbp)
	movq	-40(%rbp), %rax
	testq	%rax, %rax
	jne	.L333
	movl	$1367, %r8d
	leaq	.LC12(%rip), %rdx
	leaq	.LC13(%rip), %rcx
	movq	__imp__assert(%rip), %rax
	call	*%rax
.L333:
	movq	-48(%rbp), %rax
	movq	%rax, %rcx
	call	_ZN5boost13property_tree6detail8rapidxml8xml_nodeIcE16remove_all_nodesEv
	movq	-48(%rbp), %rax
	movq	%rax, %rcx
	call	_ZN5boost13property_tree6detail8rapidxml8xml_nodeIcE21remove_all_attributesEv
	leaq	-40(%rbp), %rax
	movq	%rax, %rdx
	movq	-48(%rbp), %rcx
	call	_ZN5boost13property_tree6detail8rapidxml12xml_documentIcE9parse_bomILi64EEEvRPc
.L338:
	leaq	-40(%rbp), %rax
	movq	%rax, %rcx
	call	_ZN5boost13property_tree6detail8rapidxml12xml_documentIcE4skipINS4_15whitespace_predELi64EEEvRPc
	movq	-40(%rbp), %rax
	movzbl	(%rax), %eax
	testb	%al, %al
	je	.L340
	movq	-40(%rbp), %rax
	movzbl	(%rax), %eax
	cmpb	$60, %al
	jne	.L336
	movq	-40(%rbp), %rax
	addq	$1, %rax
	movq	%rax, -40(%rbp)
	leaq	-40(%rbp), %rax
	movq	%rax, %rdx
	movq	-48(%rbp), %rcx
	call	_ZN5boost13property_tree6detail8rapidxml12xml_documentIcE10parse_nodeILi64EEEPNS2_8xml_nodeIcEERPc
	movq	%rax, -88(%rbp)
	cmpq	$0, -88(%rbp)
	je	.L338
	movq	-48(%rbp), %rax
	movq	-88(%rbp), %rdx
	movq	%rax, %rcx
	call	_ZN5boost13property_tree6detail8rapidxml8xml_nodeIcE11append_nodeEPS4_
	jmp	.L338
.L336:
	movl	$24, %ecx
	call	__cxa_allocate_exception
	movq	%rax, %rbx
	movq	-40(%rbp), %rax
	movq	%rax, %r8
	leaq	.LC14(%rip), %rdx
	movq	%rbx, %rcx
	call	_ZN5boost13property_tree6detail8rapidxml11parse_errorC1EPKcPv
	leaq	_ZN5boost13property_tree6detail8rapidxml11parse_errorD1Ev(%rip), %rax
	movq	%rax, %r8
	leaq	_ZTIN5boost13property_tree6detail8rapidxml11parse_errorE(%rip), %rdx
	movq	%rbx, %rcx
	call	__cxa_throw
.L340:
	nop
	nop
	addq	$56, %rsp
	popq	%rbx
	popq	%rbp
	ret
	.seh_endproc
	.section	.text$_ZNK5boost13property_tree6detail8rapidxml8xml_nodeIcE10first_nodeEPKcyb,"x"
	.linkonce discard
	.align 2
	.globl	_ZNK5boost13property_tree6detail8rapidxml8xml_nodeIcE10first_nodeEPKcyb
	.def	_ZNK5boost13property_tree6detail8rapidxml8xml_nodeIcE10first_nodeEPKcyb;	.scl	2;	.type	32;	.endef
	.seh_proc	_ZNK5boost13property_tree6detail8rapidxml8xml_nodeIcE10first_nodeEPKcyb
_ZNK5boost13property_tree6detail8rapidxml8xml_nodeIcE10first_nodeEPKcyb:
.LFB6909:
	pushq	%rbp
	.seh_pushreg	%rbp
	pushq	%rsi
	.seh_pushreg	%rsi
	pushq	%rbx
	.seh_pushreg	%rbx
	movq	%rsp, %rbp
	.seh_setframe	%rbp, 0
	subq	$64, %rsp
	.seh_stackalloc	64
	.seh_endprologue
	movq	%rcx, 32(%rbp)
	movq	%rdx, 40(%rbp)
	movq	%r8, 48(%rbp)
	movl	%r9d, %eax
	movb	%al, 56(%rbp)
	cmpq	$0, 40(%rbp)
	je	.L342
	cmpq	$0, 48(%rbp)
	jne	.L343
	movq	40(%rbp), %rax
	movq	%rax, %rcx
	call	_ZN5boost13property_tree6detail8rapidxml8internal7measureIcEEyPKT_
	movq	%rax, 48(%rbp)
.L343:
	movq	32(%rbp), %rax
	movq	48(%rax), %rax
	movq	%rax, -8(%rbp)
.L347:
	cmpq	$0, -8(%rbp)
	je	.L344
	movzbl	56(%rbp), %ebx
	movq	-8(%rbp), %rax
	movq	%rax, %rcx
	call	_ZNK5boost13property_tree6detail8rapidxml8xml_baseIcE9name_sizeEv
	movq	%rax, %rsi
	movq	-8(%rbp), %rax
	movq	%rax, %rcx
	call	_ZNK5boost13property_tree6detail8rapidxml8xml_baseIcE4nameEv
	movq	48(%rbp), %rcx
	movq	40(%rbp), %rdx
	movl	%ebx, 32(%rsp)
	movq	%rcx, %r9
	movq	%rdx, %r8
	movq	%rsi, %rdx
	movq	%rax, %rcx
	call	_ZN5boost13property_tree6detail8rapidxml8internal7compareIcEEbPKT_yS7_yb
	testb	%al, %al
	je	.L345
	movq	-8(%rbp), %rax
	jmp	.L346
.L345:
	movq	-8(%rbp), %rax
	movl	$1, %r9d
	movl	$0, %r8d
	movl	$0, %edx
	movq	%rax, %rcx
	call	_ZNK5boost13property_tree6detail8rapidxml8xml_nodeIcE12next_siblingEPKcyb
	movq	%rax, -8(%rbp)
	jmp	.L347
.L344:
	movl	$0, %eax
	jmp	.L346
.L342:
	movq	32(%rbp), %rax
	movq	48(%rax), %rax
.L346:
	addq	$64, %rsp
	popq	%rbx
	popq	%rsi
	popq	%rbp
	ret
	.seh_endproc
	.section .rdata,"dr"
.LC15:
	.ascii "this->m_parent\0"
	.section	.text$_ZNK5boost13property_tree6detail8rapidxml8xml_nodeIcE12next_siblingEPKcyb,"x"
	.linkonce discard
	.align 2
	.globl	_ZNK5boost13property_tree6detail8rapidxml8xml_nodeIcE12next_siblingEPKcyb
	.def	_ZNK5boost13property_tree6detail8rapidxml8xml_nodeIcE12next_siblingEPKcyb;	.scl	2;	.type	32;	.endef
	.seh_proc	_ZNK5boost13property_tree6detail8rapidxml8xml_nodeIcE12next_siblingEPKcyb
_ZNK5boost13property_tree6detail8rapidxml8xml_nodeIcE12next_siblingEPKcyb:
.LFB6910:
	pushq	%rbp
	.seh_pushreg	%rbp
	pushq	%rsi
	.seh_pushreg	%rsi
	pushq	%rbx
	.seh_pushreg	%rbx
	movq	%rsp, %rbp
	.seh_setframe	%rbp, 0
	subq	$64, %rsp
	.seh_stackalloc	64
	.seh_endprologue
	movq	%rcx, 32(%rbp)
	movq	%rdx, 40(%rbp)
	movq	%r8, 48(%rbp)
	movl	%r9d, %eax
	movb	%al, 56(%rbp)
	movq	32(%rbp), %rax
	movq	32(%rax), %rax
	testq	%rax, %rax
	jne	.L351
	movl	$990, %r8d
	leaq	.LC12(%rip), %rdx
	leaq	.LC15(%rip), %rcx
	movq	__imp__assert(%rip), %rax
	call	*%rax
.L351:
	cmpq	$0, 40(%rbp)
	je	.L352
	cmpq	$0, 48(%rbp)
	jne	.L353
	movq	40(%rbp), %rax
	movq	%rax, %rcx
	call	_ZN5boost13property_tree6detail8rapidxml8internal7measureIcEEyPKT_
	movq	%rax, 48(%rbp)
.L353:
	movq	32(%rbp), %rax
	movq	88(%rax), %rax
	movq	%rax, -8(%rbp)
.L357:
	cmpq	$0, -8(%rbp)
	je	.L354
	movzbl	56(%rbp), %ebx
	movq	-8(%rbp), %rax
	movq	%rax, %rcx
	call	_ZNK5boost13property_tree6detail8rapidxml8xml_baseIcE9name_sizeEv
	movq	%rax, %rsi
	movq	-8(%rbp), %rax
	movq	%rax, %rcx
	call	_ZNK5boost13property_tree6detail8rapidxml8xml_baseIcE4nameEv
	movq	48(%rbp), %rcx
	movq	40(%rbp), %rdx
	movl	%ebx, 32(%rsp)
	movq	%rcx, %r9
	movq	%rdx, %r8
	movq	%rsi, %rdx
	movq	%rax, %rcx
	call	_ZN5boost13property_tree6detail8rapidxml8internal7compareIcEEbPKT_yS7_yb
	testb	%al, %al
	je	.L355
	movq	-8(%rbp), %rax
	jmp	.L356
.L355:
	movq	-8(%rbp), %rax
	movq	88(%rax), %rax
	movq	%rax, -8(%rbp)
	jmp	.L357
.L354:
	movl	$0, %eax
	jmp	.L356
.L352:
	movq	32(%rbp), %rax
	movq	88(%rax), %rax
.L356:
	addq	$64, %rsp
	popq	%rbx
	popq	%rsi
	popq	%rbp
	ret
	.seh_endproc
	.section	.text$_ZNSt4pairIPcN5boost13property_tree11basic_ptreeINSt7__cxx1112basic_stringIcSt11char_traitsIcESaIcEEES9_St4lessIS9_EEEED1Ev,"x"
	.linkonce discard
	.align 2
	.globl	_ZNSt4pairIPcN5boost13property_tree11basic_ptreeINSt7__cxx1112basic_stringIcSt11char_traitsIcESaIcEEES9_St4lessIS9_EEEED1Ev
	.def	_ZNSt4pairIPcN5boost13property_tree11basic_ptreeINSt7__cxx1112basic_stringIcSt11char_traitsIcESaIcEEES9_St4lessIS9_EEEED1Ev;	.scl	2;	.type	32;	.endef
	.seh_proc	_ZNSt4pairIPcN5boost13property_tree11basic_ptreeINSt7__cxx1112basic_stringIcSt11char_traitsIcESaIcEEES9_St4lessIS9_EEEED1Ev
_ZNSt4pairIPcN5boost13property_tree11basic_ptreeINSt7__cxx1112basic_stringIcSt11char_traitsIcESaIcEEES9_St4lessIS9_EEEED1Ev:
.LFB6914:
	pushq	%rbp
	.seh_pushreg	%rbp
	movq	%rsp, %rbp
	.seh_setframe	%rbp, 0
	subq	$32, %rsp
	.seh_stackalloc	32
	.seh_endprologue
	movq	%rcx, 16(%rbp)
	movq	16(%rbp), %rax
	addq	$8, %rax
	movq	%rax, %rcx
	call	_ZN5boost13property_tree11basic_ptreeINSt7__cxx1112basic_stringIcSt11char_traitsIcESaIcEEES7_St4lessIS7_EED1Ev
	nop
	addq	$32, %rsp
	popq	%rbp
	ret
	.seh_endproc
	.section	.text$_ZNSt4pairIKNSt7__cxx1112basic_stringIcSt11char_traitsIcESaIcEEEN5boost13property_tree11basic_ptreeIS5_S5_St4lessIS5_EEEED1Ev,"x"
	.linkonce discard
	.align 2
	.globl	_ZNSt4pairIKNSt7__cxx1112basic_stringIcSt11char_traitsIcESaIcEEEN5boost13property_tree11basic_ptreeIS5_S5_St4lessIS5_EEEED1Ev
	.def	_ZNSt4pairIKNSt7__cxx1112basic_stringIcSt11char_traitsIcESaIcEEEN5boost13property_tree11basic_ptreeIS5_S5_St4lessIS5_EEEED1Ev;	.scl	2;	.type	32;	.endef
	.seh_proc	_ZNSt4pairIKNSt7__cxx1112basic_stringIcSt11char_traitsIcESaIcEEEN5boost13property_tree11basic_ptreeIS5_S5_St4lessIS5_EEEED1Ev
_ZNSt4pairIKNSt7__cxx1112basic_stringIcSt11char_traitsIcESaIcEEEN5boost13property_tree11basic_ptreeIS5_S5_St4lessIS5_EEEED1Ev:
.LFB6921:
	pushq	%rbp
	.seh_pushreg	%rbp
	movq	%rsp, %rbp
	.seh_setframe	%rbp, 0
	subq	$32, %rsp
	.seh_stackalloc	32
	.seh_endprologue
	movq	%rcx, 16(%rbp)
	movq	16(%rbp), %rax
	addq	$32, %rax
	movq	%rax, %rcx
	call	_ZN5boost13property_tree11basic_ptreeINSt7__cxx1112basic_stringIcSt11char_traitsIcESaIcEEES7_St4lessIS7_EED1Ev
	movq	16(%rbp), %rax
	movq	%rax, %rcx
	call	_ZNSt7__cxx1112basic_stringIcSt11char_traitsIcESaIcEED1Ev
	nop
	addq	$32, %rsp
	popq	%rbp
	ret
	.seh_endproc
	.section	.text$_ZNSt4pairINSt7__cxx1112basic_stringIcSt11char_traitsIcESaIcEEEN5boost13property_tree11basic_ptreeIS5_S5_St4lessIS5_EEEED1Ev,"x"
	.linkonce discard
	.align 2
	.globl	_ZNSt4pairINSt7__cxx1112basic_stringIcSt11char_traitsIcESaIcEEEN5boost13property_tree11basic_ptreeIS5_S5_St4lessIS5_EEEED1Ev
	.def	_ZNSt4pairINSt7__cxx1112basic_stringIcSt11char_traitsIcESaIcEEEN5boost13property_tree11basic_ptreeIS5_S5_St4lessIS5_EEEED1Ev;	.scl	2;	.type	32;	.endef
	.seh_proc	_ZNSt4pairINSt7__cxx1112basic_stringIcSt11char_traitsIcESaIcEEEN5boost13property_tree11basic_ptreeIS5_S5_St4lessIS5_EEEED1Ev
_ZNSt4pairINSt7__cxx1112basic_stringIcSt11char_traitsIcESaIcEEEN5boost13property_tree11basic_ptreeIS5_S5_St4lessIS5_EEEED1Ev:
.LFB6926:
	pushq	%rbp
	.seh_pushreg	%rbp
	movq	%rsp, %rbp
	.seh_setframe	%rbp, 0
	subq	$32, %rsp
	.seh_stackalloc	32
	.seh_endprologue
	movq	%rcx, 16(%rbp)
	movq	16(%rbp), %rax
	addq	$32, %rax
	movq	%rax, %rcx
	call	_ZN5boost13property_tree11basic_ptreeINSt7__cxx1112basic_stringIcSt11char_traitsIcESaIcEEES7_St4lessIS7_EED1Ev
	movq	16(%rbp), %rax
	movq	%rax, %rcx
	call	_ZNSt7__cxx1112basic_stringIcSt11char_traitsIcESaIcEED1Ev
	nop
	addq	$32, %rsp
	popq	%rbp
	ret
	.seh_endproc
	.section	.text$_ZN5boost13property_tree10xml_parser13read_xml_nodeINS0_11basic_ptreeINSt7__cxx1112basic_stringIcSt11char_traitsIcESaIcEEES9_St4lessIS9_EEEcEEvPNS0_6detail8rapidxml8xml_nodeIT0_EERT_i,"x"
	.linkonce discard
	.globl	_ZN5boost13property_tree10xml_parser13read_xml_nodeINS0_11basic_ptreeINSt7__cxx1112basic_stringIcSt11char_traitsIcESaIcEEES9_St4lessIS9_EEEcEEvPNS0_6detail8rapidxml8xml_nodeIT0_EERT_i
	.def	_ZN5boost13property_tree10xml_parser13read_xml_nodeINS0_11basic_ptreeINSt7__cxx1112basic_stringIcSt11char_traitsIcESaIcEEES9_St4lessIS9_EEEcEEvPNS0_6detail8rapidxml8xml_nodeIT0_EERT_i;	.scl	2;	.type	32;	.endef
	.seh_proc	_ZN5boost13property_tree10xml_parser13read_xml_nodeINS0_11basic_ptreeINSt7__cxx1112basic_stringIcSt11char_traitsIcESaIcEEES9_St4lessIS9_EEEcEEvPNS0_6detail8rapidxml8xml_nodeIT0_EERT_i
_ZN5boost13property_tree10xml_parser13read_xml_nodeINS0_11basic_ptreeINSt7__cxx1112basic_stringIcSt11char_traitsIcESaIcEEES9_St4lessIS9_EEEcEEvPNS0_6detail8rapidxml8xml_nodeIT0_EERT_i:
.LFB6911:
	pushq	%rbp
	.seh_pushreg	%rbp
	pushq	%rbx
	.seh_pushreg	%rbx
	subq	$1272, %rsp
	.seh_stackalloc	1272
	leaq	128(%rsp), %rbp
	.seh_setframe	%rbp, 128
	.seh_endprologue
	movq	%rcx, 1168(%rbp)
	movq	%rdx, 1176(%rbp)
	movl	%r8d, 1184(%rbp)
	movq	1168(%rbp), %rcx
	call	_ZNK5boost13property_tree6detail8rapidxml8xml_nodeIcE4typeEv
	cmpl	$4, %eax
	je	.L362
	cmpl	$4, %eax
	jg	.L420
	cmpl	$1, %eax
	je	.L364
	testl	%eax, %eax
	jle	.L420
	subl	$2, %eax
	cmpl	$1, %eax
	ja	.L420
	jmp	.L418
.L364:
	leaq	48(%rbp), %rax
	movq	%rax, %rcx
.LEHB75:
	call	_ZN5boost13property_tree11basic_ptreeINSt7__cxx1112basic_stringIcSt11char_traitsIcESaIcEEES7_St4lessIS7_EEC1Ev
.LEHE75:
	movq	1168(%rbp), %rax
	movq	%rax, %rcx
.LEHB76:
	call	_ZNK5boost13property_tree6detail8rapidxml8xml_baseIcE4nameEv
	movq	%rax, 96(%rbp)
	movq	%rbp, %rax
	leaq	48(%rbp), %rcx
	leaq	96(%rbp), %rdx
	movq	%rcx, %r8
	movq	%rax, %rcx
	call	_ZSt9make_pairIPcN5boost13property_tree11basic_ptreeINSt7__cxx1112basic_stringIcSt11char_traitsIcESaIcEEES9_St4lessIS9_EEEESt4pairINSt17__decay_and_stripIT_E6__typeENSE_IT0_E6__typeEEOSF_OSI_
.LEHE76:
	movq	%rbp, %rdx
	leaq	-80(%rbp), %rax
	movq	%rax, %rcx
.LEHB77:
	call	_ZNSt4pairIKNSt7__cxx1112basic_stringIcSt11char_traitsIcESaIcEEEN5boost13property_tree11basic_ptreeIS5_S5_St4lessIS5_EEEEC1IPcSC_Lb1EEEOS_IT_T0_E
.LEHE77:
	leaq	-80(%rbp), %rdx
	movq	1176(%rbp), %rax
	movq	%rax, %rcx
.LEHB78:
	call	_ZN5boost13property_tree11basic_ptreeINSt7__cxx1112basic_stringIcSt11char_traitsIcESaIcEEES7_St4lessIS7_EE9push_backERKSt4pairIKS7_SA_E
	movq	%rax, -88(%rbp)
	leaq	-88(%rbp), %rax
	movq	%rax, %rcx
	call	_ZNK5boost9iterators6detail20iterator_facade_baseINS_13property_tree11basic_ptreeINSt7__cxx1112basic_stringIcSt11char_traitsIcESaIcEEESA_St4lessISA_EE8iteratorESt4pairIKSA_SD_ENS0_27bidirectional_traversal_tagERSH_xLb0ELb0EEptEv
.LEHE78:
	addq	$32, %rax
	movq	%rax, 1112(%rbp)
	leaq	-80(%rbp), %rax
	movq	%rax, %rcx
	call	_ZNSt4pairIKNSt7__cxx1112basic_stringIcSt11char_traitsIcESaIcEEEN5boost13property_tree11basic_ptreeIS5_S5_St4lessIS5_EEEED1Ev
	movq	%rbp, %rax
	movq	%rax, %rcx
	call	_ZNSt4pairIPcN5boost13property_tree11basic_ptreeINSt7__cxx1112basic_stringIcSt11char_traitsIcESaIcEEES9_St4lessIS9_EEEED1Ev
	leaq	48(%rbp), %rax
	movq	%rax, %rcx
	call	_ZN5boost13property_tree11basic_ptreeINSt7__cxx1112basic_stringIcSt11char_traitsIcESaIcEEES7_St4lessIS7_EED1Ev
	movl	$1, %r9d
	movl	$0, %r8d
	movl	$0, %edx
	movq	1168(%rbp), %rcx
.LEHB79:
	call	_ZNK5boost13property_tree6detail8rapidxml8xml_nodeIcE15first_attributeEPKcyb
	testq	%rax, %rax
	setne	%al
	testb	%al, %al
	je	.L366
	leaq	272(%rbp), %rax
	movq	%rax, %rcx
	call	_ZN5boost13property_tree11basic_ptreeINSt7__cxx1112basic_stringIcSt11char_traitsIcESaIcEEES7_St4lessIS7_EEC1Ev
.LEHE79:
.LEHB80:
	call	_ZN5boost13property_tree10xml_parser7xmlattrINSt7__cxx1112basic_stringIcSt11char_traitsIcESaIcEEEEERKT_v
	movq	%rax, %rdx
	leaq	192(%rbp), %rax
	leaq	272(%rbp), %rcx
	movq	%rcx, %r8
	movq	%rax, %rcx
	call	_ZSt9make_pairIRKNSt7__cxx1112basic_stringIcSt11char_traitsIcESaIcEEEN5boost13property_tree11basic_ptreeIS5_S5_St4lessIS5_EEEESt4pairINSt17__decay_and_stripIT_E6__typeENSF_IT0_E6__typeEEOSG_OSJ_
.LEHE80:
	leaq	192(%rbp), %rdx
	leaq	112(%rbp), %rax
	movq	%rax, %rcx
.LEHB81:
	call	_ZNSt4pairIKNSt7__cxx1112basic_stringIcSt11char_traitsIcESaIcEEEN5boost13property_tree11basic_ptreeIS5_S5_St4lessIS5_EEEEC1IS5_SC_Lb1EEEOS_IT_T0_E
.LEHE81:
	leaq	112(%rbp), %rdx
	movq	1112(%rbp), %rax
	movq	%rax, %rcx
.LEHB82:
	call	_ZN5boost13property_tree11basic_ptreeINSt7__cxx1112basic_stringIcSt11char_traitsIcESaIcEEES7_St4lessIS7_EE9push_backERKSt4pairIKS7_SA_E
	movq	%rax, 104(%rbp)
	leaq	104(%rbp), %rax
	movq	%rax, %rcx
	call	_ZNK5boost9iterators6detail20iterator_facade_baseINS_13property_tree11basic_ptreeINSt7__cxx1112basic_stringIcSt11char_traitsIcESaIcEEESA_St4lessISA_EE8iteratorESt4pairIKSA_SD_ENS0_27bidirectional_traversal_tagERSH_xLb0ELb0EEptEv
.LEHE82:
	addq	$32, %rax
	movq	%rax, 1104(%rbp)
	leaq	112(%rbp), %rax
	movq	%rax, %rcx
	call	_ZNSt4pairIKNSt7__cxx1112basic_stringIcSt11char_traitsIcESaIcEEEN5boost13property_tree11basic_ptreeIS5_S5_St4lessIS5_EEEED1Ev
	leaq	192(%rbp), %rax
	movq	%rax, %rcx
	call	_ZNSt4pairINSt7__cxx1112basic_stringIcSt11char_traitsIcESaIcEEEN5boost13property_tree11basic_ptreeIS5_S5_St4lessIS5_EEEED1Ev
	leaq	272(%rbp), %rax
	movq	%rax, %rcx
	call	_ZN5boost13property_tree11basic_ptreeINSt7__cxx1112basic_stringIcSt11char_traitsIcESaIcEEES7_St4lessIS7_EED1Ev
	movl	$1, %r9d
	movl	$0, %r8d
	movl	$0, %edx
	movq	1168(%rbp), %rcx
.LEHB83:
	call	_ZNK5boost13property_tree6detail8rapidxml8xml_nodeIcE15first_attributeEPKcyb
	movq	%rax, 1128(%rbp)
.L367:
	cmpq	$0, 1128(%rbp)
	je	.L366
	leaq	448(%rbp), %rax
	movq	%rax, %rcx
	call	_ZN5boost13property_tree11basic_ptreeINSt7__cxx1112basic_stringIcSt11char_traitsIcESaIcEEES7_St4lessIS7_EEC1Ev
.LEHE83:
	movq	1128(%rbp), %rax
	movq	%rax, %rcx
.LEHB84:
	call	_ZNK5boost13property_tree6detail8rapidxml8xml_baseIcE4nameEv
	movq	%rax, 488(%rbp)
	leaq	400(%rbp), %rax
	leaq	448(%rbp), %rcx
	leaq	488(%rbp), %rdx
	movq	%rcx, %r8
	movq	%rax, %rcx
	call	_ZSt9make_pairIPcN5boost13property_tree11basic_ptreeINSt7__cxx1112basic_stringIcSt11char_traitsIcESaIcEEES9_St4lessIS9_EEEESt4pairINSt17__decay_and_stripIT_E6__typeENSE_IT0_E6__typeEEOSF_OSI_
.LEHE84:
	leaq	400(%rbp), %rdx
	leaq	320(%rbp), %rax
	movq	%rax, %rcx
.LEHB85:
	call	_ZNSt4pairIKNSt7__cxx1112basic_stringIcSt11char_traitsIcESaIcEEEN5boost13property_tree11basic_ptreeIS5_S5_St4lessIS5_EEEEC1IPcSC_Lb1EEEOS_IT_T0_E
.LEHE85:
	leaq	320(%rbp), %rdx
	movq	1104(%rbp), %rax
	movq	%rax, %rcx
.LEHB86:
	call	_ZN5boost13property_tree11basic_ptreeINSt7__cxx1112basic_stringIcSt11char_traitsIcESaIcEEES7_St4lessIS7_EE9push_backERKSt4pairIKS7_SA_E
	movq	%rax, 312(%rbp)
	leaq	312(%rbp), %rax
	movq	%rax, %rcx
	call	_ZNK5boost9iterators6detail20iterator_facade_baseINS_13property_tree11basic_ptreeINSt7__cxx1112basic_stringIcSt11char_traitsIcESaIcEEESA_St4lessISA_EE8iteratorESt4pairIKSA_SD_ENS0_27bidirectional_traversal_tagERSH_xLb0ELb0EEptEv
.LEHE86:
	addq	$32, %rax
	movq	%rax, 1096(%rbp)
	leaq	320(%rbp), %rax
	movq	%rax, %rcx
	call	_ZNSt4pairIKNSt7__cxx1112basic_stringIcSt11char_traitsIcESaIcEEEN5boost13property_tree11basic_ptreeIS5_S5_St4lessIS5_EEEED1Ev
	leaq	400(%rbp), %rax
	movq	%rax, %rcx
	call	_ZNSt4pairIPcN5boost13property_tree11basic_ptreeINSt7__cxx1112basic_stringIcSt11char_traitsIcESaIcEEES9_St4lessIS9_EEEED1Ev
	leaq	448(%rbp), %rax
	movq	%rax, %rcx
	call	_ZN5boost13property_tree11basic_ptreeINSt7__cxx1112basic_stringIcSt11char_traitsIcESaIcEEES7_St4lessIS7_EED1Ev
	leaq	543(%rbp), %rax
	movq	%rax, %rcx
	call	_ZNSaIcEC1Ev
	movq	1128(%rbp), %rax
	movq	%rax, %rcx
	call	_ZNK5boost13property_tree6detail8rapidxml8xml_baseIcE10value_sizeEv
	movq	%rax, %rbx
	movq	1128(%rbp), %rax
	movq	%rax, %rcx
.LEHB87:
	call	_ZNK5boost13property_tree6detail8rapidxml8xml_baseIcE5valueEv
	movq	%rax, %rdx
	leaq	543(%rbp), %rcx
	leaq	496(%rbp), %rax
	movq	%rcx, %r9
	movq	%rbx, %r8
	movq	%rax, %rcx
	call	_ZNSt7__cxx1112basic_stringIcSt11char_traitsIcESaIcEEC1EPKcyRKS3_
.LEHE87:
	movq	1096(%rbp), %rax
	movq	%rax, %rcx
	call	_ZN5boost13property_tree11basic_ptreeINSt7__cxx1112basic_stringIcSt11char_traitsIcESaIcEEES7_St4lessIS7_EE4dataEv
	movq	%rax, %rcx
	leaq	496(%rbp), %rax
	movq	%rax, %rdx
	call	_ZNSt7__cxx1112basic_stringIcSt11char_traitsIcESaIcEEaSEOS4_
	leaq	496(%rbp), %rax
	movq	%rax, %rcx
	call	_ZNSt7__cxx1112basic_stringIcSt11char_traitsIcESaIcEED1Ev
	leaq	543(%rbp), %rax
	movq	%rax, %rcx
	call	_ZNSaIcED1Ev
	movq	1128(%rbp), %rax
	movl	$1, %r9d
	movl	$0, %r8d
	movl	$0, %edx
	movq	%rax, %rcx
.LEHB88:
	call	_ZNK5boost13property_tree6detail8rapidxml13xml_attributeIcE14next_attributeEPKcyb
	movq	%rax, 1128(%rbp)
	jmp	.L367
.L366:
	movl	$1, %r9d
	movl	$0, %r8d
	movl	$0, %edx
	movq	1168(%rbp), %rcx
	call	_ZNK5boost13property_tree6detail8rapidxml8xml_nodeIcE10first_nodeEPKcyb
	movq	%rax, 1120(%rbp)
.L369:
	cmpq	$0, 1120(%rbp)
	je	.L421
	movl	1184(%rbp), %ecx
	movq	1112(%rbp), %rdx
	movq	1120(%rbp), %rax
	movl	%ecx, %r8d
	movq	%rax, %rcx
	call	_ZN5boost13property_tree10xml_parser13read_xml_nodeINS0_11basic_ptreeINSt7__cxx1112basic_stringIcSt11char_traitsIcESaIcEEES9_St4lessIS9_EEEcEEvPNS0_6detail8rapidxml8xml_nodeIT0_EERT_i
	movq	1120(%rbp), %rax
	movl	$1, %r9d
	movl	$0, %r8d
	movl	$0, %edx
	movq	%rax, %rcx
	call	_ZNK5boost13property_tree6detail8rapidxml8xml_nodeIcE12next_siblingEPKcyb
.LEHE88:
	movq	%rax, 1120(%rbp)
	jmp	.L369
.L418:
	movl	1184(%rbp), %eax
	andl	$1, %eax
	testl	%eax, %eax
	je	.L371
	leaq	799(%rbp), %rax
	movq	%rax, %rcx
	call	_ZNSaIcEC1Ev
	movq	1168(%rbp), %rax
	movq	%rax, %rcx
.LEHB89:
	call	_ZNK5boost13property_tree6detail8rapidxml8xml_baseIcE5valueEv
	movq	%rax, %rdx
	leaq	799(%rbp), %rcx
	leaq	752(%rbp), %rax
	movq	%rcx, %r8
	movq	%rax, %rcx
	call	_ZNSt7__cxx1112basic_stringIcSt11char_traitsIcESaIcEEC1EPKcRKS3_
.LEHE89:
	leaq	752(%rbp), %rdx
	leaq	704(%rbp), %rax
	movq	%rax, %rcx
.LEHB90:
	call	_ZN5boost13property_tree11basic_ptreeINSt7__cxx1112basic_stringIcSt11char_traitsIcESaIcEEES7_St4lessIS7_EEC1ERKS7_
.LEHE90:
.LEHB91:
	call	_ZN5boost13property_tree10xml_parser7xmltextINSt7__cxx1112basic_stringIcSt11char_traitsIcESaIcEEEEERKT_v
	movq	%rax, %rdx
	leaq	624(%rbp), %rax
	leaq	704(%rbp), %rcx
	movq	%rcx, %r8
	movq	%rax, %rcx
	call	_ZSt9make_pairIRKNSt7__cxx1112basic_stringIcSt11char_traitsIcESaIcEEEN5boost13property_tree11basic_ptreeIS5_S5_St4lessIS5_EEEESt4pairINSt17__decay_and_stripIT_E6__typeENSF_IT0_E6__typeEEOSG_OSJ_
.LEHE91:
	leaq	624(%rbp), %rdx
	leaq	544(%rbp), %rax
	movq	%rax, %rcx
.LEHB92:
	call	_ZNSt4pairIKNSt7__cxx1112basic_stringIcSt11char_traitsIcESaIcEEEN5boost13property_tree11basic_ptreeIS5_S5_St4lessIS5_EEEEC1IS5_SC_Lb1EEEOS_IT_T0_E
.LEHE92:
	leaq	544(%rbp), %rdx
	movq	1176(%rbp), %rax
	movq	%rax, %rcx
.LEHB93:
	call	_ZN5boost13property_tree11basic_ptreeINSt7__cxx1112basic_stringIcSt11char_traitsIcESaIcEEES7_St4lessIS7_EE9push_backERKSt4pairIKS7_SA_E
.LEHE93:
	leaq	544(%rbp), %rax
	movq	%rax, %rcx
	call	_ZNSt4pairIKNSt7__cxx1112basic_stringIcSt11char_traitsIcESaIcEEEN5boost13property_tree11basic_ptreeIS5_S5_St4lessIS5_EEEED1Ev
	leaq	624(%rbp), %rax
	movq	%rax, %rcx
	call	_ZNSt4pairINSt7__cxx1112basic_stringIcSt11char_traitsIcESaIcEEEN5boost13property_tree11basic_ptreeIS5_S5_St4lessIS5_EEEED1Ev
	leaq	704(%rbp), %rax
	movq	%rax, %rcx
	call	_ZN5boost13property_tree11basic_ptreeINSt7__cxx1112basic_stringIcSt11char_traitsIcESaIcEEES7_St4lessIS7_EED1Ev
	leaq	752(%rbp), %rax
	movq	%rax, %rcx
	call	_ZNSt7__cxx1112basic_stringIcSt11char_traitsIcESaIcEED1Ev
	leaq	799(%rbp), %rax
	movq	%rax, %rcx
	call	_ZNSaIcED1Ev
	jmp	.L370
.L371:
	leaq	847(%rbp), %rax
	movq	%rax, %rcx
	call	_ZNSaIcEC1Ev
	movq	1168(%rbp), %rax
	movq	%rax, %rcx
	call	_ZNK5boost13property_tree6detail8rapidxml8xml_baseIcE10value_sizeEv
	movq	%rax, %rbx
	movq	1168(%rbp), %rax
	movq	%rax, %rcx
.LEHB94:
	call	_ZNK5boost13property_tree6detail8rapidxml8xml_baseIcE5valueEv
	movq	%rax, %rdx
	leaq	847(%rbp), %rcx
	leaq	800(%rbp), %rax
	movq	%rcx, %r9
	movq	%rbx, %r8
	movq	%rax, %rcx
	call	_ZNSt7__cxx1112basic_stringIcSt11char_traitsIcESaIcEEC1EPKcyRKS3_
.LEHE94:
	movq	1176(%rbp), %rax
	movq	%rax, %rcx
	call	_ZN5boost13property_tree11basic_ptreeINSt7__cxx1112basic_stringIcSt11char_traitsIcESaIcEEES7_St4lessIS7_EE4dataEv
	movq	%rax, %rcx
	leaq	800(%rbp), %rax
	movq	%rax, %rdx
.LEHB95:
	call	_ZNSt7__cxx1112basic_stringIcSt11char_traitsIcESaIcEEpLERKS4_
.LEHE95:
	leaq	800(%rbp), %rax
	movq	%rax, %rcx
	call	_ZNSt7__cxx1112basic_stringIcSt11char_traitsIcESaIcEED1Ev
	leaq	847(%rbp), %rax
	movq	%rax, %rcx
	call	_ZNSaIcED1Ev
	jmp	.L370
.L362:
	movl	1184(%rbp), %eax
	andl	$2, %eax
	testl	%eax, %eax
	jne	.L422
	leaq	1095(%rbp), %rax
	movq	%rax, %rcx
	call	_ZNSaIcEC1Ev
	movq	1168(%rbp), %rax
	movq	%rax, %rcx
	call	_ZNK5boost13property_tree6detail8rapidxml8xml_baseIcE10value_sizeEv
	movq	%rax, %rbx
	movq	1168(%rbp), %rax
	movq	%rax, %rcx
.LEHB96:
	call	_ZNK5boost13property_tree6detail8rapidxml8xml_baseIcE5valueEv
	movq	%rax, %rdx
	leaq	1095(%rbp), %rcx
	leaq	1056(%rbp), %rax
	movq	%rcx, %r9
	movq	%rbx, %r8
	movq	%rax, %rcx
	call	_ZNSt7__cxx1112basic_stringIcSt11char_traitsIcESaIcEEC1EPKcyRKS3_
.LEHE96:
	leaq	1056(%rbp), %rdx
	leaq	1008(%rbp), %rax
	movq	%rax, %rcx
.LEHB97:
	call	_ZN5boost13property_tree11basic_ptreeINSt7__cxx1112basic_stringIcSt11char_traitsIcESaIcEEES7_St4lessIS7_EEC1ERKS7_
.LEHE97:
.LEHB98:
	call	_ZN5boost13property_tree10xml_parser10xmlcommentINSt7__cxx1112basic_stringIcSt11char_traitsIcESaIcEEEEERKT_v
	movq	%rax, %rdx
	leaq	928(%rbp), %rax
	leaq	1008(%rbp), %rcx
	movq	%rcx, %r8
	movq	%rax, %rcx
	call	_ZSt9make_pairIRKNSt7__cxx1112basic_stringIcSt11char_traitsIcESaIcEEEN5boost13property_tree11basic_ptreeIS5_S5_St4lessIS5_EEEESt4pairINSt17__decay_and_stripIT_E6__typeENSF_IT0_E6__typeEEOSG_OSJ_
.LEHE98:
	leaq	928(%rbp), %rdx
	leaq	848(%rbp), %rax
	movq	%rax, %rcx
.LEHB99:
	call	_ZNSt4pairIKNSt7__cxx1112basic_stringIcSt11char_traitsIcESaIcEEEN5boost13property_tree11basic_ptreeIS5_S5_St4lessIS5_EEEEC1IS5_SC_Lb1EEEOS_IT_T0_E
.LEHE99:
	leaq	848(%rbp), %rdx
	movq	1176(%rbp), %rax
	movq	%rax, %rcx
.LEHB100:
	call	_ZN5boost13property_tree11basic_ptreeINSt7__cxx1112basic_stringIcSt11char_traitsIcESaIcEEES7_St4lessIS7_EE9push_backERKSt4pairIKS7_SA_E
.LEHE100:
	leaq	848(%rbp), %rax
	movq	%rax, %rcx
	call	_ZNSt4pairIKNSt7__cxx1112basic_stringIcSt11char_traitsIcESaIcEEEN5boost13property_tree11basic_ptreeIS5_S5_St4lessIS5_EEEED1Ev
	leaq	928(%rbp), %rax
	movq	%rax, %rcx
	call	_ZNSt4pairINSt7__cxx1112basic_stringIcSt11char_traitsIcESaIcEEEN5boost13property_tree11basic_ptreeIS5_S5_St4lessIS5_EEEED1Ev
	leaq	1008(%rbp), %rax
	movq	%rax, %rcx
	call	_ZN5boost13property_tree11basic_ptreeINSt7__cxx1112basic_stringIcSt11char_traitsIcESaIcEEES7_St4lessIS7_EED1Ev
	leaq	1056(%rbp), %rax
	movq	%rax, %rcx
	call	_ZNSt7__cxx1112basic_stringIcSt11char_traitsIcESaIcEED1Ev
	leaq	1095(%rbp), %rax
	movq	%rax, %rcx
	call	_ZNSaIcED1Ev
	jmp	.L422
.L420:
	nop
	jmp	.L419
.L421:
	nop
	jmp	.L419
.L422:
	nop
.L370:
	jmp	.L419
.L398:
	movq	%rax, %rbx
	leaq	-80(%rbp), %rax
	movq	%rax, %rcx
	call	_ZNSt4pairIKNSt7__cxx1112basic_stringIcSt11char_traitsIcESaIcEEEN5boost13property_tree11basic_ptreeIS5_S5_St4lessIS5_EEEED1Ev
	jmp	.L375
.L397:
	movq	%rax, %rbx
.L375:
	movq	%rbp, %rax
	movq	%rax, %rcx
	call	_ZNSt4pairIPcN5boost13property_tree11basic_ptreeINSt7__cxx1112basic_stringIcSt11char_traitsIcESaIcEEES9_St4lessIS9_EEEED1Ev
	jmp	.L376
.L396:
	movq	%rax, %rbx
.L376:
	leaq	48(%rbp), %rax
	movq	%rax, %rcx
	call	_ZN5boost13property_tree11basic_ptreeINSt7__cxx1112basic_stringIcSt11char_traitsIcESaIcEEES7_St4lessIS7_EED1Ev
	movq	%rbx, %rax
	movq	%rax, %rcx
.LEHB101:
	call	_Unwind_Resume
.L401:
	movq	%rax, %rbx
	leaq	112(%rbp), %rax
	movq	%rax, %rcx
	call	_ZNSt4pairIKNSt7__cxx1112basic_stringIcSt11char_traitsIcESaIcEEEN5boost13property_tree11basic_ptreeIS5_S5_St4lessIS5_EEEED1Ev
	jmp	.L378
.L400:
	movq	%rax, %rbx
.L378:
	leaq	192(%rbp), %rax
	movq	%rax, %rcx
	call	_ZNSt4pairINSt7__cxx1112basic_stringIcSt11char_traitsIcESaIcEEEN5boost13property_tree11basic_ptreeIS5_S5_St4lessIS5_EEEED1Ev
	jmp	.L379
.L399:
	movq	%rax, %rbx
.L379:
	leaq	272(%rbp), %rax
	movq	%rax, %rcx
	call	_ZN5boost13property_tree11basic_ptreeINSt7__cxx1112basic_stringIcSt11char_traitsIcESaIcEEES7_St4lessIS7_EED1Ev
	movq	%rbx, %rax
	movq	%rax, %rcx
	call	_Unwind_Resume
.L404:
	movq	%rax, %rbx
	leaq	320(%rbp), %rax
	movq	%rax, %rcx
	call	_ZNSt4pairIKNSt7__cxx1112basic_stringIcSt11char_traitsIcESaIcEEEN5boost13property_tree11basic_ptreeIS5_S5_St4lessIS5_EEEED1Ev
	jmp	.L381
.L403:
	movq	%rax, %rbx
.L381:
	leaq	400(%rbp), %rax
	movq	%rax, %rcx
	call	_ZNSt4pairIPcN5boost13property_tree11basic_ptreeINSt7__cxx1112basic_stringIcSt11char_traitsIcESaIcEEES9_St4lessIS9_EEEED1Ev
	jmp	.L382
.L402:
	movq	%rax, %rbx
.L382:
	leaq	448(%rbp), %rax
	movq	%rax, %rcx
	call	_ZN5boost13property_tree11basic_ptreeINSt7__cxx1112basic_stringIcSt11char_traitsIcESaIcEEES7_St4lessIS7_EED1Ev
	movq	%rbx, %rax
	movq	%rax, %rcx
	call	_Unwind_Resume
.L405:
	movq	%rax, %rbx
	leaq	543(%rbp), %rax
	movq	%rax, %rcx
	call	_ZNSaIcED1Ev
	movq	%rbx, %rax
	movq	%rax, %rcx
	call	_Unwind_Resume
.L410:
	movq	%rax, %rbx
	leaq	544(%rbp), %rax
	movq	%rax, %rcx
	call	_ZNSt4pairIKNSt7__cxx1112basic_stringIcSt11char_traitsIcESaIcEEEN5boost13property_tree11basic_ptreeIS5_S5_St4lessIS5_EEEED1Ev
	jmp	.L385
.L409:
	movq	%rax, %rbx
.L385:
	leaq	624(%rbp), %rax
	movq	%rax, %rcx
	call	_ZNSt4pairINSt7__cxx1112basic_stringIcSt11char_traitsIcESaIcEEEN5boost13property_tree11basic_ptreeIS5_S5_St4lessIS5_EEEED1Ev
	jmp	.L386
.L408:
	movq	%rax, %rbx
.L386:
	leaq	704(%rbp), %rax
	movq	%rax, %rcx
	call	_ZN5boost13property_tree11basic_ptreeINSt7__cxx1112basic_stringIcSt11char_traitsIcESaIcEEES7_St4lessIS7_EED1Ev
	jmp	.L387
.L407:
	movq	%rax, %rbx
.L387:
	leaq	752(%rbp), %rax
	movq	%rax, %rcx
	call	_ZNSt7__cxx1112basic_stringIcSt11char_traitsIcESaIcEED1Ev
	jmp	.L388
.L406:
	movq	%rax, %rbx
.L388:
	leaq	799(%rbp), %rax
	movq	%rax, %rcx
	call	_ZNSaIcED1Ev
	movq	%rbx, %rax
	movq	%rax, %rcx
	call	_Unwind_Resume
.L412:
	movq	%rax, %rbx
	leaq	800(%rbp), %rax
	movq	%rax, %rcx
	call	_ZNSt7__cxx1112basic_stringIcSt11char_traitsIcESaIcEED1Ev
	jmp	.L390
.L411:
	movq	%rax, %rbx
.L390:
	leaq	847(%rbp), %rax
	movq	%rax, %rcx
	call	_ZNSaIcED1Ev
	movq	%rbx, %rax
	movq	%rax, %rcx
	call	_Unwind_Resume
.L417:
	movq	%rax, %rbx
	leaq	848(%rbp), %rax
	movq	%rax, %rcx
	call	_ZNSt4pairIKNSt7__cxx1112basic_stringIcSt11char_traitsIcESaIcEEEN5boost13property_tree11basic_ptreeIS5_S5_St4lessIS5_EEEED1Ev
	jmp	.L392
.L416:
	movq	%rax, %rbx
.L392:
	leaq	928(%rbp), %rax
	movq	%rax, %rcx
	call	_ZNSt4pairINSt7__cxx1112basic_stringIcSt11char_traitsIcESaIcEEEN5boost13property_tree11basic_ptreeIS5_S5_St4lessIS5_EEEED1Ev
	jmp	.L393
.L415:
	movq	%rax, %rbx
.L393:
	leaq	1008(%rbp), %rax
	movq	%rax, %rcx
	call	_ZN5boost13property_tree11basic_ptreeINSt7__cxx1112basic_stringIcSt11char_traitsIcESaIcEEES7_St4lessIS7_EED1Ev
	jmp	.L394
.L414:
	movq	%rax, %rbx
.L394:
	leaq	1056(%rbp), %rax
	movq	%rax, %rcx
	call	_ZNSt7__cxx1112basic_stringIcSt11char_traitsIcESaIcEED1Ev
	jmp	.L395
.L413:
	movq	%rax, %rbx
.L395:
	leaq	1095(%rbp), %rax
	movq	%rax, %rcx
	call	_ZNSaIcED1Ev
	movq	%rbx, %rax
	movq	%rax, %rcx
	call	_Unwind_Resume
	nop
.LEHE101:
.L419:
	addq	$1272, %rsp
	popq	%rbx
	popq	%rbp
	ret
	.seh_handler	__gxx_personality_seh0, @unwind, @except
	.seh_handlerdata
.LLSDA6911:
	.byte	0xff
	.byte	0xff
	.byte	0x1
	.uleb128 .LLSDACSE6911-.LLSDACSB6911
.LLSDACSB6911:
	.uleb128 .LEHB75-.LFB6911
	.uleb128 .LEHE75-.LEHB75
	.uleb128 0
	.uleb128 0
	.uleb128 .LEHB76-.LFB6911
	.uleb128 .LEHE76-.LEHB76
	.uleb128 .L396-.LFB6911
	.uleb128 0
	.uleb128 .LEHB77-.LFB6911
	.uleb128 .LEHE77-.LEHB77
	.uleb128 .L397-.LFB6911
	.uleb128 0
	.uleb128 .LEHB78-.LFB6911
	.uleb128 .LEHE78-.LEHB78
	.uleb128 .L398-.LFB6911
	.uleb128 0
	.uleb128 .LEHB79-.LFB6911
	.uleb128 .LEHE79-.LEHB79
	.uleb128 0
	.uleb128 0
	.uleb128 .LEHB80-.LFB6911
	.uleb128 .LEHE80-.LEHB80
	.uleb128 .L399-.LFB6911
	.uleb128 0
	.uleb128 .LEHB81-.LFB6911
	.uleb128 .LEHE81-.LEHB81
	.uleb128 .L400-.LFB6911
	.uleb128 0
	.uleb128 .LEHB82-.LFB6911
	.uleb128 .LEHE82-.LEHB82
	.uleb128 .L401-.LFB6911
	.uleb128 0
	.uleb128 .LEHB83-.LFB6911
	.uleb128 .LEHE83-.LEHB83
	.uleb128 0
	.uleb128 0
	.uleb128 .LEHB84-.LFB6911
	.uleb128 .LEHE84-.LEHB84
	.uleb128 .L402-.LFB6911
	.uleb128 0
	.uleb128 .LEHB85-.LFB6911
	.uleb128 .LEHE85-.LEHB85
	.uleb128 .L403-.LFB6911
	.uleb128 0
	.uleb128 .LEHB86-.LFB6911
	.uleb128 .LEHE86-.LEHB86
	.uleb128 .L404-.LFB6911
	.uleb128 0
	.uleb128 .LEHB87-.LFB6911
	.uleb128 .LEHE87-.LEHB87
	.uleb128 .L405-.LFB6911
	.uleb128 0
	.uleb128 .LEHB88-.LFB6911
	.uleb128 .LEHE88-.LEHB88
	.uleb128 0
	.uleb128 0
	.uleb128 .LEHB89-.LFB6911
	.uleb128 .LEHE89-.LEHB89
	.uleb128 .L406-.LFB6911
	.uleb128 0
	.uleb128 .LEHB90-.LFB6911
	.uleb128 .LEHE90-.LEHB90
	.uleb128 .L407-.LFB6911
	.uleb128 0
	.uleb128 .LEHB91-.LFB6911
	.uleb128 .LEHE91-.LEHB91
	.uleb128 .L408-.LFB6911
	.uleb128 0
	.uleb128 .LEHB92-.LFB6911
	.uleb128 .LEHE92-.LEHB92
	.uleb128 .L409-.LFB6911
	.uleb128 0
	.uleb128 .LEHB93-.LFB6911
	.uleb128 .LEHE93-.LEHB93
	.uleb128 .L410-.LFB6911
	.uleb128 0
	.uleb128 .LEHB94-.LFB6911
	.uleb128 .LEHE94-.LEHB94
	.uleb128 .L411-.LFB6911
	.uleb128 0
	.uleb128 .LEHB95-.LFB6911
	.uleb128 .LEHE95-.LEHB95
	.uleb128 .L412-.LFB6911
	.uleb128 0
	.uleb128 .LEHB96-.LFB6911
	.uleb128 .LEHE96-.LEHB96
	.uleb128 .L413-.LFB6911
	.uleb128 0
	.uleb128 .LEHB97-.LFB6911
	.uleb128 .LEHE97-.LEHB97
	.uleb128 .L414-.LFB6911
	.uleb128 0
	.uleb128 .LEHB98-.LFB6911
	.uleb128 .LEHE98-.LEHB98
	.uleb128 .L415-.LFB6911
	.uleb128 0
	.uleb128 .LEHB99-.LFB6911
	.uleb128 .LEHE99-.LEHB99
	.uleb128 .L416-.LFB6911
	.uleb128 0
	.uleb128 .LEHB100-.LFB6911
	.uleb128 .LEHE100-.LEHB100
	.uleb128 .L417-.LFB6911
	.uleb128 0
	.uleb128 .LEHB101-.LFB6911
	.uleb128 .LEHE101-.LEHB101
	.uleb128 0
	.uleb128 0
.LLSDACSE6911:
	.section	.text$_ZN5boost13property_tree10xml_parser13read_xml_nodeINS0_11basic_ptreeINSt7__cxx1112basic_stringIcSt11char_traitsIcESaIcEEES9_St4lessIS9_EEEcEEvPNS0_6detail8rapidxml8xml_nodeIT0_EERT_i,"x"
	.linkonce discard
	.seh_endproc
	.section	.text$_ZN5boost13property_tree11basic_ptreeINSt7__cxx1112basic_stringIcSt11char_traitsIcESaIcEEES7_St4lessIS7_EE4swapERSA_,"x"
	.linkonce discard
	.align 2
	.globl	_ZN5boost13property_tree11basic_ptreeINSt7__cxx1112basic_stringIcSt11char_traitsIcESaIcEEES7_St4lessIS7_EE4swapERSA_
	.def	_ZN5boost13property_tree11basic_ptreeINSt7__cxx1112basic_stringIcSt11char_traitsIcESaIcEEES7_St4lessIS7_EE4swapERSA_;	.scl	2;	.type	32;	.endef
	.seh_proc	_ZN5boost13property_tree11basic_ptreeINSt7__cxx1112basic_stringIcSt11char_traitsIcESaIcEEES7_St4lessIS7_EE4swapERSA_
_ZN5boost13property_tree11basic_ptreeINSt7__cxx1112basic_stringIcSt11char_traitsIcESaIcEEES7_St4lessIS7_EE4swapERSA_:
.LFB6931:
	pushq	%rbp
	.seh_pushreg	%rbp
	movq	%rsp, %rbp
	.seh_setframe	%rbp, 0
	subq	$32, %rsp
	.seh_stackalloc	32
	.seh_endprologue
	movq	%rcx, 16(%rbp)
	movq	%rdx, 24(%rbp)
	movq	24(%rbp), %rdx
	movq	16(%rbp), %rax
	movq	%rax, %rcx
	call	_ZN5boost4swapINSt7__cxx1112basic_stringIcSt11char_traitsIcESaIcEEES6_EENS_11enable_if_cIXaantsrN15boost_swap_impl8is_constIT_EE5valuentsrNS9_IT0_EE5valueEvE4typeERSA_RSC_
	movq	24(%rbp), %rax
	leaq	32(%rax), %rdx
	movq	16(%rbp), %rax
	addq	$32, %rax
	movq	%rax, %rcx
	call	_ZSt4swapIPvENSt9enable_ifIXsrSt6__and_IJSt6__not_ISt15__is_tuple_likeIT_EESt21is_move_constructibleIS5_ESt18is_move_assignableIS5_EEE5valueEvE4typeERS5_SF_
	nop
	addq	$32, %rsp
	popq	%rbp
	ret
	.seh_endproc
	.section	.text$_ZNK5boost13property_tree6detail8rapidxml11parse_error5whereIcEEPT_v,"x"
	.linkonce discard
	.align 2
	.globl	_ZNK5boost13property_tree6detail8rapidxml11parse_error5whereIcEEPT_v
	.def	_ZNK5boost13property_tree6detail8rapidxml11parse_error5whereIcEEPT_v;	.scl	2;	.type	32;	.endef
	.seh_proc	_ZNK5boost13property_tree6detail8rapidxml11parse_error5whereIcEEPT_v
_ZNK5boost13property_tree6detail8rapidxml11parse_error5whereIcEEPT_v:
.LFB6932:
	pushq	%rbp
	.seh_pushreg	%rbp
	movq	%rsp, %rbp
	.seh_setframe	%rbp, 0
	.seh_endprologue
	movq	%rcx, 16(%rbp)
	movq	16(%rbp), %rax
	movq	16(%rax), %rax
	popq	%rbp
	ret
	.seh_endproc
	.section	.text$_ZSt5countIPccENSt15iterator_traitsIT_E15difference_typeES2_S2_RKT0_,"x"
	.linkonce discard
	.globl	_ZSt5countIPccENSt15iterator_traitsIT_E15difference_typeES2_S2_RKT0_
	.def	_ZSt5countIPccENSt15iterator_traitsIT_E15difference_typeES2_S2_RKT0_;	.scl	2;	.type	32;	.endef
	.seh_proc	_ZSt5countIPccENSt15iterator_traitsIT_E15difference_typeES2_S2_RKT0_
_ZSt5countIPccENSt15iterator_traitsIT_E15difference_typeES2_S2_RKT0_:
.LFB6933:
	pushq	%rbp
	.seh_pushreg	%rbp
	movq	%rsp, %rbp
	.seh_setframe	%rbp, 0
	subq	$32, %rsp
	.seh_stackalloc	32
	.seh_endprologue
	movq	%rcx, 16(%rbp)
	movq	%rdx, 24(%rbp)
	movq	%r8, 32(%rbp)
	movq	32(%rbp), %rax
	movq	%rax, %rcx
	call	_ZN9__gnu_cxx5__ops17__iter_equals_valIKcEENS0_16_Iter_equals_valIT_EERS4_
	movq	%rax, %rdx
	movq	24(%rbp), %rax
	movq	%rdx, %r8
	movq	%rax, %rdx
	movq	16(%rbp), %rcx
	call	_ZSt10__count_ifIPcN9__gnu_cxx5__ops16_Iter_equals_valIKcEEENSt15iterator_traitsIT_E15difference_typeES7_S7_T0_
	addq	$32, %rsp
	popq	%rbp
	ret
	.seh_endproc
	.section .rdata,"dr"
.LC16:
	.ascii "No such node\0"
	.align 8
.LC17:
	.ascii "C:/msys64/mingw64/include/boost/property_tree/detail/ptree_implementation.hpp\0"
	.align 8
.LC18:
	.ascii "boost::property_tree::basic_ptree<K, D, C>& boost::property_tree::basic_ptree<Key, Data, KeyCompare>::get_child(const path_type&) [with Key = std::__cxx11::basic_string<char>; Data = std::__cxx11::basic_string<char>; KeyCompare = std::less<std::__cxx11::basic_string<char> >; boost::property_tree::basic_ptree<Key, Data, KeyCompare>::path_type = boost::property_tree::string_path<std::__cxx11::basic_string<char>, boost::property_tree::id_translator<std::__cxx11::basic_string<char> > >]\0"
	.section	.text$_ZN5boost13property_tree11basic_ptreeINSt7__cxx1112basic_stringIcSt11char_traitsIcESaIcEEES7_St4lessIS7_EE9get_childERKNS0_11string_pathIS7_NS0_13id_translatorIS7_EEEE,"x"
	.linkonce discard
	.align 2
	.globl	_ZN5boost13property_tree11basic_ptreeINSt7__cxx1112basic_stringIcSt11char_traitsIcESaIcEEES7_St4lessIS7_EE9get_childERKNS0_11string_pathIS7_NS0_13id_translatorIS7_EEEE
	.def	_ZN5boost13property_tree11basic_ptreeINSt7__cxx1112basic_stringIcSt11char_traitsIcESaIcEEES7_St4lessIS7_EE9get_childERKNS0_11string_pathIS7_NS0_13id_translatorIS7_EEEE;	.scl	2;	.type	32;	.endef
	.seh_proc	_ZN5boost13property_tree11basic_ptreeINSt7__cxx1112basic_stringIcSt11char_traitsIcESaIcEEES7_St4lessIS7_EE9get_childERKNS0_11string_pathIS7_NS0_13id_translatorIS7_EEEE
_ZN5boost13property_tree11basic_ptreeINSt7__cxx1112basic_stringIcSt11char_traitsIcESaIcEEES7_St4lessIS7_EE9get_childERKNS0_11string_pathIS7_NS0_13id_translatorIS7_EEEE:
.LFB6937:
	pushq	%rbp
	.seh_pushreg	%rbp
	pushq	%rbx
	.seh_pushreg	%rbx
	subq	$168, %rsp
	.seh_stackalloc	168
	leaq	128(%rsp), %rbp
	.seh_setframe	%rbp, 128
	.seh_endprologue
	movq	%rcx, 64(%rbp)
	movq	%rdx, 72(%rbp)
	movq	72(%rbp), %rdx
	leaq	-96(%rbp), %rax
	movq	%rax, %rcx
.LEHB102:
	call	_ZN5boost13property_tree11string_pathINSt7__cxx1112basic_stringIcSt11char_traitsIcESaIcEEENS0_13id_translatorIS7_EEEC1ERKSA_
.LEHE102:
	leaq	-96(%rbp), %rax
	movq	%rax, %rdx
	movq	64(%rbp), %rcx
.LEHB103:
	call	_ZNK5boost13property_tree11basic_ptreeINSt7__cxx1112basic_stringIcSt11char_traitsIcESaIcEEES7_St4lessIS7_EE9walk_pathERNS0_11string_pathIS7_NS0_13id_translatorIS7_EEEE
.LEHE103:
	movq	%rax, 24(%rbp)
	cmpq	$0, 24(%rbp)
	jne	.L429
	leaq	23(%rbp), %rax
	movq	%rax, %rcx
	call	_ZNSaIcEC1Ev
	leaq	23(%rbp), %rdx
	leaq	-16(%rbp), %rax
	movq	%rdx, %r8
	leaq	.LC16(%rip), %rdx
	movq	%rax, %rcx
.LEHB104:
	call	_ZNSt7__cxx1112basic_stringIcSt11char_traitsIcESaIcEEC1EPKcRKS3_
.LEHE104:
	movq	72(%rbp), %rcx
	leaq	-16(%rbp), %rdx
	leaq	-48(%rbp), %rax
	movq	%rcx, %r8
	movq	%rax, %rcx
.LEHB105:
	call	_ZN5boost13property_tree14ptree_bad_pathC1INS0_11string_pathINSt7__cxx1112basic_stringIcSt11char_traitsIcESaIcEEENS0_13id_translatorIS9_EEEEEERKS9_RKT_
.LEHE105:
	leaq	-48(%rbp), %rax
	movl	$576, %r9d
	leaq	.LC17(%rip), %r8
	leaq	.LC18(%rip), %rdx
	movq	%rax, %rcx
.LEHB106:
	call	_ZN5boost16exception_detail16throw_exception_INS_13property_tree14ptree_bad_pathEEEvRKT_PKcS8_i
.LEHE106:
.L429:
	movq	24(%rbp), %rbx
	leaq	-96(%rbp), %rax
	movq	%rax, %rcx
	call	_ZN5boost13property_tree11string_pathINSt7__cxx1112basic_stringIcSt11char_traitsIcESaIcEEENS0_13id_translatorIS7_EEED1Ev
	movq	%rbx, %rax
	jmp	.L439
.L438:
	movq	%rax, %rbx
	leaq	-48(%rbp), %rax
	movq	%rax, %rcx
	call	_ZN5boost13property_tree14ptree_bad_pathD1Ev
	jmp	.L432
.L437:
	movq	%rax, %rbx
.L432:
	leaq	-16(%rbp), %rax
	movq	%rax, %rcx
	call	_ZNSt7__cxx1112basic_stringIcSt11char_traitsIcESaIcEED1Ev
	jmp	.L433
.L436:
	movq	%rax, %rbx
.L433:
	leaq	23(%rbp), %rax
	movq	%rax, %rcx
	call	_ZNSaIcED1Ev
	jmp	.L434
.L435:
	movq	%rax, %rbx
.L434:
	leaq	-96(%rbp), %rax
	movq	%rax, %rcx
	call	_ZN5boost13property_tree11string_pathINSt7__cxx1112basic_stringIcSt11char_traitsIcESaIcEEENS0_13id_translatorIS7_EEED1Ev
	movq	%rbx, %rax
	movq	%rax, %rcx
.LEHB107:
	call	_Unwind_Resume
.LEHE107:
.L439:
	addq	$168, %rsp
	popq	%rbx
	popq	%rbp
	ret
	.seh_handler	__gxx_personality_seh0, @unwind, @except
	.seh_handlerdata
.LLSDA6937:
	.byte	0xff
	.byte	0xff
	.byte	0x1
	.uleb128 .LLSDACSE6937-.LLSDACSB6937
.LLSDACSB6937:
	.uleb128 .LEHB102-.LFB6937
	.uleb128 .LEHE102-.LEHB102
	.uleb128 0
	.uleb128 0
	.uleb128 .LEHB103-.LFB6937
	.uleb128 .LEHE103-.LEHB103
	.uleb128 .L435-.LFB6937
	.uleb128 0
	.uleb128 .LEHB104-.LFB6937
	.uleb128 .LEHE104-.LEHB104
	.uleb128 .L436-.LFB6937
	.uleb128 0
	.uleb128 .LEHB105-.LFB6937
	.uleb128 .LEHE105-.LEHB105
	.uleb128 .L437-.LFB6937
	.uleb128 0
	.uleb128 .LEHB106-.LFB6937
	.uleb128 .LEHE106-.LEHB106
	.uleb128 .L438-.LFB6937
	.uleb128 0
	.uleb128 .LEHB107-.LFB6937
	.uleb128 .LEHE107-.LEHB107
	.uleb128 0
	.uleb128 0
.LLSDACSE6937:
	.section	.text$_ZN5boost13property_tree11basic_ptreeINSt7__cxx1112basic_stringIcSt11char_traitsIcESaIcEEES7_St4lessIS7_EE9get_childERKNS0_11string_pathIS7_NS0_13id_translatorIS7_EEEE,"x"
	.linkonce discard
	.seh_endproc
	.section	.text$_ZN5boost8optionalINSt7__cxx1112basic_stringIcSt11char_traitsIcESaIcEEEED1Ev,"x"
	.linkonce discard
	.align 2
	.globl	_ZN5boost8optionalINSt7__cxx1112basic_stringIcSt11char_traitsIcESaIcEEEED1Ev
	.def	_ZN5boost8optionalINSt7__cxx1112basic_stringIcSt11char_traitsIcESaIcEEEED1Ev;	.scl	2;	.type	32;	.endef
	.seh_proc	_ZN5boost8optionalINSt7__cxx1112basic_stringIcSt11char_traitsIcESaIcEEEED1Ev
_ZN5boost8optionalINSt7__cxx1112basic_stringIcSt11char_traitsIcESaIcEEEED1Ev:
.LFB6941:
	pushq	%rbp
	.seh_pushreg	%rbp
	movq	%rsp, %rbp
	.seh_setframe	%rbp, 0
	subq	$32, %rsp
	.seh_stackalloc	32
	.seh_endprologue
	movq	%rcx, 16(%rbp)
	movq	16(%rbp), %rax
	movq	%rax, %rcx
	call	_ZN5boost15optional_detail13optional_baseINSt7__cxx1112basic_stringIcSt11char_traitsIcESaIcEEEED2Ev
	nop
	addq	$32, %rsp
	popq	%rbp
	ret
	.seh_endproc
	.section .rdata,"dr"
.LC19:
	.ascii "conversion of data to type \"\0"
.LC20:
	.ascii "\" failed\0"
	.align 8
.LC21:
	.ascii "typename boost::enable_if<boost::property_tree::detail::is_translator<Translator>, Type>::type boost::property_tree::basic_ptree<Key, Data, KeyCompare>::get_value(Translator) const [with Type = std::__cxx11::basic_string<char>; Translator = boost::property_tree::id_translator<std::__cxx11::basic_string<char> >; Key = std::__cxx11::basic_string<char>; Data = std::__cxx11::basic_string<char>; KeyCompare = std::less<std::__cxx11::basic_string<char> >; typename boost::enable_if<boost::property_tree::detail::is_translator<Translator>, Type>::type = std::__cxx11::basic_string<char>]\0"
	.section	.text$_ZNK5boost13property_tree11basic_ptreeINSt7__cxx1112basic_stringIcSt11char_traitsIcESaIcEEES7_St4lessIS7_EE9get_valueIS7_NS0_13id_translatorIS7_EEEENS_9enable_ifINS0_6detail13is_translatorIT0_EET_E4typeESH_,"x"
	.linkonce discard
	.align 2
	.globl	_ZNK5boost13property_tree11basic_ptreeINSt7__cxx1112basic_stringIcSt11char_traitsIcESaIcEEES7_St4lessIS7_EE9get_valueIS7_NS0_13id_translatorIS7_EEEENS_9enable_ifINS0_6detail13is_translatorIT0_EET_E4typeESH_
	.def	_ZNK5boost13property_tree11basic_ptreeINSt7__cxx1112basic_stringIcSt11char_traitsIcESaIcEEES7_St4lessIS7_EE9get_valueIS7_NS0_13id_translatorIS7_EEEENS_9enable_ifINS0_6detail13is_translatorIT0_EET_E4typeESH_;	.scl	2;	.type	32;	.endef
	.seh_proc	_ZNK5boost13property_tree11basic_ptreeINSt7__cxx1112basic_stringIcSt11char_traitsIcESaIcEEES7_St4lessIS7_EE9get_valueIS7_NS0_13id_translatorIS7_EEEENS_9enable_ifINS0_6detail13is_translatorIT0_EET_E4typeESH_
_ZNK5boost13property_tree11basic_ptreeINSt7__cxx1112basic_stringIcSt11char_traitsIcESaIcEEES7_St4lessIS7_EE9get_valueIS7_NS0_13id_translatorIS7_EEEENS_9enable_ifINS0_6detail13is_translatorIT0_EET_E4typeESH_:
.LFB6938:
	pushq	%rbp
	.seh_pushreg	%rbp
	pushq	%rsi
	.seh_pushreg	%rsi
	pushq	%rbx
	.seh_pushreg	%rbx
	movq	%rsp, %rbp
	.seh_setframe	%rbp, 0
	subq	$224, %rsp
	.seh_stackalloc	224
	.seh_endprologue
	movq	%rcx, 32(%rbp)
	movq	%rdx, 40(%rbp)
	leaq	-192(%rbp), %rax
	movq	40(%rbp), %rdx
	movq	%rax, %rcx
.LEHB108:
	call	_ZNK5boost13property_tree11basic_ptreeINSt7__cxx1112basic_stringIcSt11char_traitsIcESaIcEEES7_St4lessIS7_EE18get_value_optionalIS7_NS0_13id_translatorIS7_EEEENS_8optionalIT_EET0_
.LEHE108:
	leaq	-192(%rbp), %rax
	movq	%rax, %rcx
	call	_ZNK5boost8optionalINSt7__cxx1112basic_stringIcSt11char_traitsIcESaIcEEEEntEv
	xorl	$1, %eax
	testb	%al, %al
	je	.L443
	leaq	-192(%rbp), %rax
	movq	%rax, %rcx
.LEHB109:
	call	_ZNR5boost8optionalINSt7__cxx1112basic_stringIcSt11char_traitsIcESaIcEEEEdeEv
	movq	%rax, %rdx
	movq	32(%rbp), %rcx
	call	_ZNSt7__cxx1112basic_stringIcSt11char_traitsIcESaIcEEC1ERKS4_
.LEHE109:
	movl	$0, %ebx
	jmp	.L444
.L443:
	movl	$1, %ebx
.L444:
	leaq	-192(%rbp), %rax
	movq	%rax, %rcx
	call	_ZN5boost8optionalINSt7__cxx1112basic_stringIcSt11char_traitsIcESaIcEEEED1Ev
	cmpl	$1, %ebx
	jne	.L460
	movq	40(%rbp), %rax
	movq	%rax, %rcx
	call	_ZNK5boost13property_tree11basic_ptreeINSt7__cxx1112basic_stringIcSt11char_traitsIcESaIcEEES7_St4lessIS7_EE4dataEv
	movq	%rax, %rbx
	leaq	_ZTINSt7__cxx1112basic_stringIcSt11char_traitsIcESaIcEEE(%rip), %rcx
	call	_ZNKSt9type_info4nameEv
	movq	%rax, %rsi
	leaq	-1(%rbp), %rax
	movq	%rax, %rcx
	call	_ZNSaIcEC1Ev
	leaq	-1(%rbp), %rdx
	leaq	-48(%rbp), %rax
	movq	%rdx, %r8
	leaq	.LC19(%rip), %rdx
	movq	%rax, %rcx
.LEHB110:
	call	_ZNSt7__cxx1112basic_stringIcSt11char_traitsIcESaIcEEC1EPKcRKS3_
.LEHE110:
	leaq	-80(%rbp), %rax
	leaq	-48(%rbp), %rdx
	movq	%rsi, %r8
	movq	%rax, %rcx
.LEHB111:
	call	_ZStplIcSt11char_traitsIcESaIcEENSt7__cxx1112basic_stringIT_T0_T1_EEOS8_PKS5_
.LEHE111:
	leaq	-112(%rbp), %rax
	leaq	-80(%rbp), %rdx
	leaq	.LC20(%rip), %r8
	movq	%rax, %rcx
.LEHB112:
	call	_ZStplIcSt11char_traitsIcESaIcEENSt7__cxx1112basic_stringIT_T0_T1_EEOS8_PKS5_
.LEHE112:
	leaq	-112(%rbp), %rdx
	leaq	-144(%rbp), %rax
	movq	%rbx, %r8
	movq	%rax, %rcx
.LEHB113:
	call	_ZN5boost13property_tree14ptree_bad_dataC1INSt7__cxx1112basic_stringIcSt11char_traitsIcESaIcEEEEERKS8_RKT_
.LEHE113:
	leaq	-144(%rbp), %rax
	movl	$670, %r9d
	leaq	.LC17(%rip), %r8
	leaq	.LC21(%rip), %rdx
	movq	%rax, %rcx
.LEHB114:
	call	_ZN5boost16exception_detail16throw_exception_INS_13property_tree14ptree_bad_dataEEEvRKT_PKcS8_i
.LEHE114:
.L454:
	movq	%rax, %rbx
	leaq	-192(%rbp), %rax
	movq	%rax, %rcx
	call	_ZN5boost8optionalINSt7__cxx1112basic_stringIcSt11char_traitsIcESaIcEEEED1Ev
	movq	%rbx, %rax
	movq	%rax, %rcx
.LEHB115:
	call	_Unwind_Resume
.L459:
	movq	%rax, %rbx
	leaq	-144(%rbp), %rax
	movq	%rax, %rcx
	call	_ZN5boost13property_tree14ptree_bad_dataD1Ev
	jmp	.L450
.L458:
	movq	%rax, %rbx
.L450:
	leaq	-112(%rbp), %rax
	movq	%rax, %rcx
	call	_ZNSt7__cxx1112basic_stringIcSt11char_traitsIcESaIcEED1Ev
	jmp	.L451
.L457:
	movq	%rax, %rbx
.L451:
	leaq	-80(%rbp), %rax
	movq	%rax, %rcx
	call	_ZNSt7__cxx1112basic_stringIcSt11char_traitsIcESaIcEED1Ev
	jmp	.L452
.L456:
	movq	%rax, %rbx
.L452:
	leaq	-48(%rbp), %rax
	movq	%rax, %rcx
	call	_ZNSt7__cxx1112basic_stringIcSt11char_traitsIcESaIcEED1Ev
	jmp	.L453
.L455:
	movq	%rax, %rbx
.L453:
	leaq	-1(%rbp), %rax
	movq	%rax, %rcx
	call	_ZNSaIcED1Ev
	movq	%rbx, %rax
	movq	%rax, %rcx
	call	_Unwind_Resume
.LEHE115:
.L460:
	nop
	movq	32(%rbp), %rax
	addq	$224, %rsp
	popq	%rbx
	popq	%rsi
	popq	%rbp
	ret
	.seh_handler	__gxx_personality_seh0, @unwind, @except
	.seh_handlerdata
.LLSDA6938:
	.byte	0xff
	.byte	0xff
	.byte	0x1
	.uleb128 .LLSDACSE6938-.LLSDACSB6938
.LLSDACSB6938:
	.uleb128 .LEHB108-.LFB6938
	.uleb128 .LEHE108-.LEHB108
	.uleb128 0
	.uleb128 0
	.uleb128 .LEHB109-.LFB6938
	.uleb128 .LEHE109-.LEHB109
	.uleb128 .L454-.LFB6938
	.uleb128 0
	.uleb128 .LEHB110-.LFB6938
	.uleb128 .LEHE110-.LEHB110
	.uleb128 .L455-.LFB6938
	.uleb128 0
	.uleb128 .LEHB111-.LFB6938
	.uleb128 .LEHE111-.LEHB111
	.uleb128 .L456-.LFB6938
	.uleb128 0
	.uleb128 .LEHB112-.LFB6938
	.uleb128 .LEHE112-.LEHB112
	.uleb128 .L457-.LFB6938
	.uleb128 0
	.uleb128 .LEHB113-.LFB6938
	.uleb128 .LEHE113-.LEHB113
	.uleb128 .L458-.LFB6938
	.uleb128 0
	.uleb128 .LEHB114-.LFB6938
	.uleb128 .LEHE114-.LEHB114
	.uleb128 .L459-.LFB6938
	.uleb128 0
	.uleb128 .LEHB115-.LFB6938
	.uleb128 .LEHE115-.LEHB115
	.uleb128 0
	.uleb128 0
.LLSDACSE6938:
	.section	.text$_ZNK5boost13property_tree11basic_ptreeINSt7__cxx1112basic_stringIcSt11char_traitsIcESaIcEEES7_St4lessIS7_EE9get_valueIS7_NS0_13id_translatorIS7_EEEENS_9enable_ifINS0_6detail13is_translatorIT0_EET_E4typeESH_,"x"
	.linkonce discard
	.seh_endproc
	.section	.text$_ZNSt16allocator_traitsISaIcEE10deallocateERS0_Pcy,"x"
	.linkonce discard
	.globl	_ZNSt16allocator_traitsISaIcEE10deallocateERS0_Pcy
	.def	_ZNSt16allocator_traitsISaIcEE10deallocateERS0_Pcy;	.scl	2;	.type	32;	.endef
	.seh_proc	_ZNSt16allocator_traitsISaIcEE10deallocateERS0_Pcy
_ZNSt16allocator_traitsISaIcEE10deallocateERS0_Pcy:
.LFB6946:
	pushq	%rbp
	.seh_pushreg	%rbp
	movq	%rsp, %rbp
	.seh_setframe	%rbp, 0
	subq	$32, %rsp
	.seh_stackalloc	32
	.seh_endprologue
	movq	%rcx, 16(%rbp)
	movq	%rdx, 24(%rbp)
	movq	%r8, 32(%rbp)
	movq	32(%rbp), %rdx
	movq	24(%rbp), %rax
	movq	%rdx, %r8
	movq	%rax, %rdx
	movq	16(%rbp), %rcx
	call	_ZN9__gnu_cxx13new_allocatorIcE10deallocateEPcy
	nop
	addq	$32, %rsp
	popq	%rbp
	ret
	.seh_endproc
	.section	.text$_ZN9__gnu_cxx17__normal_iteratorIPKcNSt7__cxx1112basic_stringIcSt11char_traitsIcESaIcEEEEC1IPcEERKNS0_IT_NS_11__enable_ifIXsrSt10__are_sameISC_SB_E7__valueES8_E6__typeEEE,"x"
	.linkonce discard
	.align 2
	.globl	_ZN9__gnu_cxx17__normal_iteratorIPKcNSt7__cxx1112basic_stringIcSt11char_traitsIcESaIcEEEEC1IPcEERKNS0_IT_NS_11__enable_ifIXsrSt10__are_sameISC_SB_E7__valueES8_E6__typeEEE
	.def	_ZN9__gnu_cxx17__normal_iteratorIPKcNSt7__cxx1112basic_stringIcSt11char_traitsIcESaIcEEEEC1IPcEERKNS0_IT_NS_11__enable_ifIXsrSt10__are_sameISC_SB_E7__valueES8_E6__typeEEE;	.scl	2;	.type	32;	.endef
	.seh_proc	_ZN9__gnu_cxx17__normal_iteratorIPKcNSt7__cxx1112basic_stringIcSt11char_traitsIcESaIcEEEEC1IPcEERKNS0_IT_NS_11__enable_ifIXsrSt10__are_sameISC_SB_E7__valueES8_E6__typeEEE
_ZN9__gnu_cxx17__normal_iteratorIPKcNSt7__cxx1112basic_stringIcSt11char_traitsIcESaIcEEEEC1IPcEERKNS0_IT_NS_11__enable_ifIXsrSt10__are_sameISC_SB_E7__valueES8_E6__typeEEE:
.LFB6988:
	pushq	%rbp
	.seh_pushreg	%rbp
	movq	%rsp, %rbp
	.seh_setframe	%rbp, 0
	subq	$32, %rsp
	.seh_stackalloc	32
	.seh_endprologue
	movq	%rcx, 16(%rbp)
	movq	%rdx, 24(%rbp)
	movq	24(%rbp), %rax
	movq	%rax, %rcx
	call	_ZNK9__gnu_cxx17__normal_iteratorIPcNSt7__cxx1112basic_stringIcSt11char_traitsIcESaIcEEEE4baseEv
	movq	(%rax), %rdx
	movq	16(%rbp), %rax
	movq	%rdx, (%rax)
	nop
	addq	$32, %rsp
	popq	%rbp
	ret
	.seh_endproc
	.section	.text$_ZNSt16allocator_traitsISaIcEE8allocateERS0_y,"x"
	.linkonce discard
	.globl	_ZNSt16allocator_traitsISaIcEE8allocateERS0_y
	.def	_ZNSt16allocator_traitsISaIcEE8allocateERS0_y;	.scl	2;	.type	32;	.endef
	.seh_proc	_ZNSt16allocator_traitsISaIcEE8allocateERS0_y
_ZNSt16allocator_traitsISaIcEE8allocateERS0_y:
.LFB6991:
	pushq	%rbp
	.seh_pushreg	%rbp
	movq	%rsp, %rbp
	.seh_setframe	%rbp, 0
	subq	$32, %rsp
	.seh_stackalloc	32
	.seh_endprologue
	movq	%rcx, 16(%rbp)
	movq	%rdx, 24(%rbp)
	movq	24(%rbp), %rax
	movl	$0, %r8d
	movq	%rax, %rdx
	movq	16(%rbp), %rcx
	call	_ZN9__gnu_cxx13new_allocatorIcE8allocateEyPKv
	addq	$32, %rsp
	popq	%rbp
	ret
	.seh_endproc
	.section	.text$_ZN9__gnu_cxx13new_allocatorISt4pairIKNSt7__cxx1112basic_stringIcSt11char_traitsIcESaIcEEEN5boost13property_tree11basic_ptreeIS7_S7_St4lessIS7_EEEEEC2Ev,"x"
	.linkonce discard
	.align 2
	.globl	_ZN9__gnu_cxx13new_allocatorISt4pairIKNSt7__cxx1112basic_stringIcSt11char_traitsIcESaIcEEEN5boost13property_tree11basic_ptreeIS7_S7_St4lessIS7_EEEEEC2Ev
	.def	_ZN9__gnu_cxx13new_allocatorISt4pairIKNSt7__cxx1112basic_stringIcSt11char_traitsIcESaIcEEEN5boost13property_tree11basic_ptreeIS7_S7_St4lessIS7_EEEEEC2Ev;	.scl	2;	.type	32;	.endef
	.seh_proc	_ZN9__gnu_cxx13new_allocatorISt4pairIKNSt7__cxx1112basic_stringIcSt11char_traitsIcESaIcEEEN5boost13property_tree11basic_ptreeIS7_S7_St4lessIS7_EEEEEC2Ev
_ZN9__gnu_cxx13new_allocatorISt4pairIKNSt7__cxx1112basic_stringIcSt11char_traitsIcESaIcEEEN5boost13property_tree11basic_ptreeIS7_S7_St4lessIS7_EEEEEC2Ev:
.LFB6995:
	pushq	%rbp
	.seh_pushreg	%rbp
	movq	%rsp, %rbp
	.seh_setframe	%rbp, 0
	.seh_endprologue
	movq	%rcx, 16(%rbp)
	nop
	popq	%rbp
	ret
	.seh_endproc
	.section	.text$_ZN9__gnu_cxx13new_allocatorISt4pairIKNSt7__cxx1112basic_stringIcSt11char_traitsIcESaIcEEEN5boost13property_tree11basic_ptreeIS7_S7_St4lessIS7_EEEEED2Ev,"x"
	.linkonce discard
	.align 2
	.globl	_ZN9__gnu_cxx13new_allocatorISt4pairIKNSt7__cxx1112basic_stringIcSt11char_traitsIcESaIcEEEN5boost13property_tree11basic_ptreeIS7_S7_St4lessIS7_EEEEED2Ev
	.def	_ZN9__gnu_cxx13new_allocatorISt4pairIKNSt7__cxx1112basic_stringIcSt11char_traitsIcESaIcEEEN5boost13property_tree11basic_ptreeIS7_S7_St4lessIS7_EEEEED2Ev;	.scl	2;	.type	32;	.endef
	.seh_proc	_ZN9__gnu_cxx13new_allocatorISt4pairIKNSt7__cxx1112basic_stringIcSt11char_traitsIcESaIcEEEN5boost13property_tree11basic_ptreeIS7_S7_St4lessIS7_EEEEED2Ev
